
keypad_lcd.elf:     file format elf32-littlearm

Sections:
Idx Name          Size      VMA       LMA       File off  Algn
  0 .isr_vector   000002ac  08000000  08000000  00001000  2**0
                  CONTENTS, ALLOC, LOAD, READONLY, DATA
  1 .text         000036e0  080002ac  080002ac  000012ac  2**2
                  CONTENTS, ALLOC, LOAD, READONLY, CODE
  2 .rodata       00000db0  0800398c  0800398c  0000498c  2**2
                  CONTENTS, ALLOC, LOAD, READONLY, DATA
  3 .ARM          00000008  0800473c  0800473c  0000573c  2**2
                  CONTENTS, ALLOC, LOAD, READONLY, DATA
  4 .init_array   00000004  08004744  08004744  00005744  2**2
                  CONTENTS, ALLOC, LOAD, READONLY, DATA
  5 .fini_array   00000004  08004748  08004748  00005748  2**2
                  CONTENTS, ALLOC, LOAD, READONLY, DATA
  6 .data         00000014  24000000  0800474c  00006000  2**2
                  CONTENTS, ALLOC, LOAD, DATA
  7 .bss          00000528  24000014  08004760  00006014  2**2
                  ALLOC
  8 ._user_heap_stack 00000604  2400053c  08004760  0000653c  2**0
                  ALLOC
  9 .ARM.attributes 0000002e  00000000  00000000  00006014  2**0
                  CONTENTS, READONLY
 10 .comment      00000043  00000000  00000000  00006042  2**0
                  CONTENTS, READONLY
 11 .debug_frame  000000ac  00000000  00000000  00006088  2**2
                  CONTENTS, READONLY, DEBUGGING, OCTETS

Disassembly of section .text:

080002ac <__do_global_dtors_aux>:
 80002ac:	b510      	push	{r4, lr}
 80002ae:	4c05      	ldr	r4, [pc, #20]	@ (80002c4 <__do_global_dtors_aux+0x18>)
 80002b0:	7823      	ldrb	r3, [r4, #0]
 80002b2:	b933      	cbnz	r3, 80002c2 <__do_global_dtors_aux+0x16>
 80002b4:	4b04      	ldr	r3, [pc, #16]	@ (80002c8 <__do_global_dtors_aux+0x1c>)
 80002b6:	b113      	cbz	r3, 80002be <__do_global_dtors_aux+0x12>
 80002b8:	4804      	ldr	r0, [pc, #16]	@ (80002cc <__do_global_dtors_aux+0x20>)
 80002ba:	f3af 8000 	nop.w
 80002be:	2301      	movs	r3, #1
 80002c0:	7023      	strb	r3, [r4, #0]
 80002c2:	bd10      	pop	{r4, pc}
 80002c4:	24000014 	.word	0x24000014
 80002c8:	00000000 	.word	0x00000000
 80002cc:	08003974 	.word	0x08003974

080002d0 <frame_dummy>:
 80002d0:	b508      	push	{r3, lr}
 80002d2:	4b03      	ldr	r3, [pc, #12]	@ (80002e0 <frame_dummy+0x10>)
 80002d4:	b11b      	cbz	r3, 80002de <frame_dummy+0xe>
 80002d6:	4903      	ldr	r1, [pc, #12]	@ (80002e4 <frame_dummy+0x14>)
 80002d8:	4803      	ldr	r0, [pc, #12]	@ (80002e8 <frame_dummy+0x18>)
 80002da:	f3af 8000 	nop.w
 80002de:	bd08      	pop	{r3, pc}
 80002e0:	00000000 	.word	0x00000000
 80002e4:	24000018 	.word	0x24000018
 80002e8:	08003974 	.word	0x08003974

080002ec <__aeabi_uldivmod>:
 80002ec:	b953      	cbnz	r3, 8000304 <__aeabi_uldivmod+0x18>
 80002ee:	b94a      	cbnz	r2, 8000304 <__aeabi_uldivmod+0x18>
 80002f0:	2900      	cmp	r1, #0
 80002f2:	bf08      	it	eq
 80002f4:	2800      	cmpeq	r0, #0
 80002f6:	bf1c      	itt	ne
 80002f8:	f04f 31ff 	movne.w	r1, #4294967295
 80002fc:	f04f 30ff 	movne.w	r0, #4294967295
 8000300:	f000 b96a 	b.w	80005d8 <__aeabi_idiv0>
 8000304:	f1ad 0c08 	sub.w	ip, sp, #8
 8000308:	e96d ce04 	strd	ip, lr, [sp, #-16]!
 800030c:	f000 f806 	bl	800031c <__udivmoddi4>
 8000310:	f8dd e004 	ldr.w	lr, [sp, #4]
 8000314:	e9dd 2302 	ldrd	r2, r3, [sp, #8]
 8000318:	b004      	add	sp, #16
 800031a:	4770      	bx	lr

0800031c <__udivmoddi4>:
 800031c:	e92d 47f0 	stmdb	sp!, {r4, r5, r6, r7, r8, r9, sl, lr}
 8000320:	9d08      	ldr	r5, [sp, #32]
 8000322:	460c      	mov	r4, r1
 8000324:	2b00      	cmp	r3, #0
 8000326:	d14e      	bne.n	80003c6 <__udivmoddi4+0xaa>
 8000328:	4694      	mov	ip, r2
 800032a:	458c      	cmp	ip, r1
 800032c:	4686      	mov	lr, r0
 800032e:	fab2 f282 	clz	r2, r2
 8000332:	d962      	bls.n	80003fa <__udivmoddi4+0xde>
 8000334:	b14a      	cbz	r2, 800034a <__udivmoddi4+0x2e>
 8000336:	f1c2 0320 	rsb	r3, r2, #32
 800033a:	4091      	lsls	r1, r2
 800033c:	fa20 f303 	lsr.w	r3, r0, r3
 8000340:	fa0c fc02 	lsl.w	ip, ip, r2
 8000344:	4319      	orrs	r1, r3
 8000346:	fa00 fe02 	lsl.w	lr, r0, r2
 800034a:	ea4f 471c 	mov.w	r7, ip, lsr #16
 800034e:	fa1f f68c 	uxth.w	r6, ip
 8000352:	fbb1 f4f7 	udiv	r4, r1, r7
 8000356:	ea4f 431e 	mov.w	r3, lr, lsr #16
 800035a:	fb07 1114 	mls	r1, r7, r4, r1
 800035e:	ea43 4301 	orr.w	r3, r3, r1, lsl #16
 8000362:	fb04 f106 	mul.w	r1, r4, r6
 8000366:	4299      	cmp	r1, r3
 8000368:	d90a      	bls.n	8000380 <__udivmoddi4+0x64>
 800036a:	eb1c 0303 	adds.w	r3, ip, r3
 800036e:	f104 30ff 	add.w	r0, r4, #4294967295
 8000372:	f080 8112 	bcs.w	800059a <__udivmoddi4+0x27e>
 8000376:	4299      	cmp	r1, r3
 8000378:	f240 810f 	bls.w	800059a <__udivmoddi4+0x27e>
 800037c:	3c02      	subs	r4, #2
 800037e:	4463      	add	r3, ip
 8000380:	1a59      	subs	r1, r3, r1
 8000382:	fa1f f38e 	uxth.w	r3, lr
 8000386:	fbb1 f0f7 	udiv	r0, r1, r7
 800038a:	fb07 1110 	mls	r1, r7, r0, r1
 800038e:	ea43 4301 	orr.w	r3, r3, r1, lsl #16
 8000392:	fb00 f606 	mul.w	r6, r0, r6
 8000396:	429e      	cmp	r6, r3
 8000398:	d90a      	bls.n	80003b0 <__udivmoddi4+0x94>
 800039a:	eb1c 0303 	adds.w	r3, ip, r3
 800039e:	f100 31ff 	add.w	r1, r0, #4294967295
 80003a2:	f080 80fc 	bcs.w	800059e <__udivmoddi4+0x282>
 80003a6:	429e      	cmp	r6, r3
 80003a8:	f240 80f9 	bls.w	800059e <__udivmoddi4+0x282>
 80003ac:	4463      	add	r3, ip
 80003ae:	3802      	subs	r0, #2
 80003b0:	1b9b      	subs	r3, r3, r6
 80003b2:	ea40 4004 	orr.w	r0, r0, r4, lsl #16
 80003b6:	2100      	movs	r1, #0
 80003b8:	b11d      	cbz	r5, 80003c2 <__udivmoddi4+0xa6>
 80003ba:	40d3      	lsrs	r3, r2
 80003bc:	2200      	movs	r2, #0
 80003be:	e9c5 3200 	strd	r3, r2, [r5]
 80003c2:	e8bd 87f0 	ldmia.w	sp!, {r4, r5, r6, r7, r8, r9, sl, pc}
 80003c6:	428b      	cmp	r3, r1
 80003c8:	d905      	bls.n	80003d6 <__udivmoddi4+0xba>
 80003ca:	b10d      	cbz	r5, 80003d0 <__udivmoddi4+0xb4>
 80003cc:	e9c5 0100 	strd	r0, r1, [r5]
 80003d0:	2100      	movs	r1, #0
 80003d2:	4608      	mov	r0, r1
 80003d4:	e7f5      	b.n	80003c2 <__udivmoddi4+0xa6>
 80003d6:	fab3 f183 	clz	r1, r3
 80003da:	2900      	cmp	r1, #0
 80003dc:	d146      	bne.n	800046c <__udivmoddi4+0x150>
 80003de:	42a3      	cmp	r3, r4
 80003e0:	d302      	bcc.n	80003e8 <__udivmoddi4+0xcc>
 80003e2:	4290      	cmp	r0, r2
 80003e4:	f0c0 80f0 	bcc.w	80005c8 <__udivmoddi4+0x2ac>
 80003e8:	1a86      	subs	r6, r0, r2
 80003ea:	eb64 0303 	sbc.w	r3, r4, r3
 80003ee:	2001      	movs	r0, #1
 80003f0:	2d00      	cmp	r5, #0
 80003f2:	d0e6      	beq.n	80003c2 <__udivmoddi4+0xa6>
 80003f4:	e9c5 6300 	strd	r6, r3, [r5]
 80003f8:	e7e3      	b.n	80003c2 <__udivmoddi4+0xa6>
 80003fa:	2a00      	cmp	r2, #0
 80003fc:	f040 8090 	bne.w	8000520 <__udivmoddi4+0x204>
 8000400:	eba1 040c 	sub.w	r4, r1, ip
 8000404:	ea4f 481c 	mov.w	r8, ip, lsr #16
 8000408:	fa1f f78c 	uxth.w	r7, ip
 800040c:	2101      	movs	r1, #1
 800040e:	fbb4 f6f8 	udiv	r6, r4, r8
 8000412:	ea4f 431e 	mov.w	r3, lr, lsr #16
 8000416:	fb08 4416 	mls	r4, r8, r6, r4
 800041a:	ea43 4304 	orr.w	r3, r3, r4, lsl #16
 800041e:	fb07 f006 	mul.w	r0, r7, r6
 8000422:	4298      	cmp	r0, r3
 8000424:	d908      	bls.n	8000438 <__udivmoddi4+0x11c>
 8000426:	eb1c 0303 	adds.w	r3, ip, r3
 800042a:	f106 34ff 	add.w	r4, r6, #4294967295
 800042e:	d202      	bcs.n	8000436 <__udivmoddi4+0x11a>
 8000430:	4298      	cmp	r0, r3
 8000432:	f200 80cd 	bhi.w	80005d0 <__udivmoddi4+0x2b4>
 8000436:	4626      	mov	r6, r4
 8000438:	1a1c      	subs	r4, r3, r0
 800043a:	fa1f f38e 	uxth.w	r3, lr
 800043e:	fbb4 f0f8 	udiv	r0, r4, r8
 8000442:	fb08 4410 	mls	r4, r8, r0, r4
 8000446:	ea43 4304 	orr.w	r3, r3, r4, lsl #16
 800044a:	fb00 f707 	mul.w	r7, r0, r7
 800044e:	429f      	cmp	r7, r3
 8000450:	d908      	bls.n	8000464 <__udivmoddi4+0x148>
 8000452:	eb1c 0303 	adds.w	r3, ip, r3
 8000456:	f100 34ff 	add.w	r4, r0, #4294967295
 800045a:	d202      	bcs.n	8000462 <__udivmoddi4+0x146>
 800045c:	429f      	cmp	r7, r3
 800045e:	f200 80b0 	bhi.w	80005c2 <__udivmoddi4+0x2a6>
 8000462:	4620      	mov	r0, r4
 8000464:	1bdb      	subs	r3, r3, r7
 8000466:	ea40 4006 	orr.w	r0, r0, r6, lsl #16
 800046a:	e7a5      	b.n	80003b8 <__udivmoddi4+0x9c>
 800046c:	f1c1 0620 	rsb	r6, r1, #32
 8000470:	408b      	lsls	r3, r1
 8000472:	fa22 f706 	lsr.w	r7, r2, r6
 8000476:	431f      	orrs	r7, r3
 8000478:	fa20 fc06 	lsr.w	ip, r0, r6
 800047c:	fa04 f301 	lsl.w	r3, r4, r1
 8000480:	ea43 030c 	orr.w	r3, r3, ip
 8000484:	40f4      	lsrs	r4, r6
 8000486:	fa00 f801 	lsl.w	r8, r0, r1
 800048a:	0c38      	lsrs	r0, r7, #16
 800048c:	ea4f 4913 	mov.w	r9, r3, lsr #16
 8000490:	fbb4 fef0 	udiv	lr, r4, r0
 8000494:	fa1f fc87 	uxth.w	ip, r7
 8000498:	fb00 441e 	mls	r4, r0, lr, r4
 800049c:	ea49 4404 	orr.w	r4, r9, r4, lsl #16
 80004a0:	fb0e f90c 	mul.w	r9, lr, ip
 80004a4:	45a1      	cmp	r9, r4
 80004a6:	fa02 f201 	lsl.w	r2, r2, r1
 80004aa:	d90a      	bls.n	80004c2 <__udivmoddi4+0x1a6>
 80004ac:	193c      	adds	r4, r7, r4
 80004ae:	f10e 3aff 	add.w	sl, lr, #4294967295
 80004b2:	f080 8084 	bcs.w	80005be <__udivmoddi4+0x2a2>
 80004b6:	45a1      	cmp	r9, r4
 80004b8:	f240 8081 	bls.w	80005be <__udivmoddi4+0x2a2>
 80004bc:	f1ae 0e02 	sub.w	lr, lr, #2
 80004c0:	443c      	add	r4, r7
 80004c2:	eba4 0409 	sub.w	r4, r4, r9
 80004c6:	fa1f f983 	uxth.w	r9, r3
 80004ca:	fbb4 f3f0 	udiv	r3, r4, r0
 80004ce:	fb00 4413 	mls	r4, r0, r3, r4
 80004d2:	ea49 4404 	orr.w	r4, r9, r4, lsl #16
 80004d6:	fb03 fc0c 	mul.w	ip, r3, ip
 80004da:	45a4      	cmp	ip, r4
 80004dc:	d907      	bls.n	80004ee <__udivmoddi4+0x1d2>
 80004de:	193c      	adds	r4, r7, r4
 80004e0:	f103 30ff 	add.w	r0, r3, #4294967295
 80004e4:	d267      	bcs.n	80005b6 <__udivmoddi4+0x29a>
 80004e6:	45a4      	cmp	ip, r4
 80004e8:	d965      	bls.n	80005b6 <__udivmoddi4+0x29a>
 80004ea:	3b02      	subs	r3, #2
 80004ec:	443c      	add	r4, r7
 80004ee:	ea43 400e 	orr.w	r0, r3, lr, lsl #16
 80004f2:	fba0 9302 	umull	r9, r3, r0, r2
 80004f6:	eba4 040c 	sub.w	r4, r4, ip
 80004fa:	429c      	cmp	r4, r3
 80004fc:	46ce      	mov	lr, r9
 80004fe:	469c      	mov	ip, r3
 8000500:	d351      	bcc.n	80005a6 <__udivmoddi4+0x28a>
 8000502:	d04e      	beq.n	80005a2 <__udivmoddi4+0x286>
 8000504:	b155      	cbz	r5, 800051c <__udivmoddi4+0x200>
 8000506:	ebb8 030e 	subs.w	r3, r8, lr
 800050a:	eb64 040c 	sbc.w	r4, r4, ip
 800050e:	fa04 f606 	lsl.w	r6, r4, r6
 8000512:	40cb      	lsrs	r3, r1
 8000514:	431e      	orrs	r6, r3
 8000516:	40cc      	lsrs	r4, r1
 8000518:	e9c5 6400 	strd	r6, r4, [r5]
 800051c:	2100      	movs	r1, #0
 800051e:	e750      	b.n	80003c2 <__udivmoddi4+0xa6>
 8000520:	f1c2 0320 	rsb	r3, r2, #32
 8000524:	fa20 f103 	lsr.w	r1, r0, r3
 8000528:	fa0c fc02 	lsl.w	ip, ip, r2
 800052c:	fa24 f303 	lsr.w	r3, r4, r3
 8000530:	4094      	lsls	r4, r2
 8000532:	430c      	orrs	r4, r1
 8000534:	ea4f 481c 	mov.w	r8, ip, lsr #16
 8000538:	fa00 fe02 	lsl.w	lr, r0, r2
 800053c:	fa1f f78c 	uxth.w	r7, ip
 8000540:	fbb3 f0f8 	udiv	r0, r3, r8
 8000544:	fb08 3110 	mls	r1, r8, r0, r3
 8000548:	0c23      	lsrs	r3, r4, #16
 800054a:	ea43 4301 	orr.w	r3, r3, r1, lsl #16
 800054e:	fb00 f107 	mul.w	r1, r0, r7
 8000552:	4299      	cmp	r1, r3
 8000554:	d908      	bls.n	8000568 <__udivmoddi4+0x24c>
 8000556:	eb1c 0303 	adds.w	r3, ip, r3
 800055a:	f100 36ff 	add.w	r6, r0, #4294967295
 800055e:	d22c      	bcs.n	80005ba <__udivmoddi4+0x29e>
 8000560:	4299      	cmp	r1, r3
 8000562:	d92a      	bls.n	80005ba <__udivmoddi4+0x29e>
 8000564:	3802      	subs	r0, #2
 8000566:	4463      	add	r3, ip
 8000568:	1a5b      	subs	r3, r3, r1
 800056a:	b2a4      	uxth	r4, r4
 800056c:	fbb3 f1f8 	udiv	r1, r3, r8
 8000570:	fb08 3311 	mls	r3, r8, r1, r3
 8000574:	ea44 4403 	orr.w	r4, r4, r3, lsl #16
 8000578:	fb01 f307 	mul.w	r3, r1, r7
 800057c:	42a3      	cmp	r3, r4
 800057e:	d908      	bls.n	8000592 <__udivmoddi4+0x276>
 8000580:	eb1c 0404 	adds.w	r4, ip, r4
 8000584:	f101 36ff 	add.w	r6, r1, #4294967295
 8000588:	d213      	bcs.n	80005b2 <__udivmoddi4+0x296>
 800058a:	42a3      	cmp	r3, r4
 800058c:	d911      	bls.n	80005b2 <__udivmoddi4+0x296>
 800058e:	3902      	subs	r1, #2
 8000590:	4464      	add	r4, ip
 8000592:	1ae4      	subs	r4, r4, r3
 8000594:	ea41 4100 	orr.w	r1, r1, r0, lsl #16
 8000598:	e739      	b.n	800040e <__udivmoddi4+0xf2>
 800059a:	4604      	mov	r4, r0
 800059c:	e6f0      	b.n	8000380 <__udivmoddi4+0x64>
 800059e:	4608      	mov	r0, r1
 80005a0:	e706      	b.n	80003b0 <__udivmoddi4+0x94>
 80005a2:	45c8      	cmp	r8, r9
 80005a4:	d2ae      	bcs.n	8000504 <__udivmoddi4+0x1e8>
 80005a6:	ebb9 0e02 	subs.w	lr, r9, r2
 80005aa:	eb63 0c07 	sbc.w	ip, r3, r7
 80005ae:	3801      	subs	r0, #1
 80005b0:	e7a8      	b.n	8000504 <__udivmoddi4+0x1e8>
 80005b2:	4631      	mov	r1, r6
 80005b4:	e7ed      	b.n	8000592 <__udivmoddi4+0x276>
 80005b6:	4603      	mov	r3, r0
 80005b8:	e799      	b.n	80004ee <__udivmoddi4+0x1d2>
 80005ba:	4630      	mov	r0, r6
 80005bc:	e7d4      	b.n	8000568 <__udivmoddi4+0x24c>
 80005be:	46d6      	mov	lr, sl
 80005c0:	e77f      	b.n	80004c2 <__udivmoddi4+0x1a6>
 80005c2:	4463      	add	r3, ip
 80005c4:	3802      	subs	r0, #2
 80005c6:	e74d      	b.n	8000464 <__udivmoddi4+0x148>
 80005c8:	4606      	mov	r6, r0
 80005ca:	4623      	mov	r3, r4
 80005cc:	4608      	mov	r0, r1
 80005ce:	e70f      	b.n	80003f0 <__udivmoddi4+0xd4>
 80005d0:	3e02      	subs	r6, #2
 80005d2:	4463      	add	r3, ip
 80005d4:	e730      	b.n	8000438 <__udivmoddi4+0x11c>
 80005d6:	bf00      	nop

080005d8 <__aeabi_idiv0>:
 80005d8:	4770      	bx	lr
 80005da:	bf00      	nop

080005dc <DriveAllRowPins.part.0>:
 80005dc:	b510      	push	{r4, lr}
 80005de:	2201      	movs	r2, #1
 80005e0:	4c0c      	ldr	r4, [pc, #48]	@ (8000614 <DriveAllRowPins.part.0+0x38>)
 80005e2:	2140      	movs	r1, #64	@ 0x40
 80005e4:	480c      	ldr	r0, [pc, #48]	@ (8000618 <DriveAllRowPins.part.0+0x3c>)
 80005e6:	f000 ffe7 	bl	80015b8 <HAL_GPIO_WritePin>
 80005ea:	2201      	movs	r2, #1
 80005ec:	f44f 4180 	mov.w	r1, #16384	@ 0x4000
 80005f0:	480a      	ldr	r0, [pc, #40]	@ (800061c <DriveAllRowPins.part.0+0x40>)
 80005f2:	f000 ffe1 	bl	80015b8 <HAL_GPIO_WritePin>
 80005f6:	4620      	mov	r0, r4
 80005f8:	2201      	movs	r2, #1
 80005fa:	f44f 5100 	mov.w	r1, #8192	@ 0x2000
 80005fe:	f000 ffdb 	bl	80015b8 <HAL_GPIO_WritePin>
 8000602:	4620      	mov	r0, r4
 8000604:	2201      	movs	r2, #1
 8000606:	f44f 4180 	mov.w	r1, #16384	@ 0x4000
 800060a:	e8bd 4010 	ldmia.w	sp!, {r4, lr}
 800060e:	f000 bfd3 	b.w	80015b8 <HAL_GPIO_WritePin>
 8000612:	bf00      	nop
 8000614:	58021000 	.word	0x58021000
 8000618:	58020400 	.word	0x58020400
 800061c:	58021800 	.word	0x58021800

08000620 <DriveAllRowPins>:
 8000620:	b510      	push	{r4, lr}
 8000622:	4604      	mov	r4, r0
 8000624:	b118      	cbz	r0, 800062e <DriveAllRowPins+0xe>
 8000626:	e8bd 4010 	ldmia.w	sp!, {r4, lr}
 800062a:	f7ff bfd7 	b.w	80005dc <DriveAllRowPins.part.0>
 800062e:	4602      	mov	r2, r0
 8000630:	2140      	movs	r1, #64	@ 0x40
 8000632:	480b      	ldr	r0, [pc, #44]	@ (8000660 <DriveAllRowPins+0x40>)
 8000634:	f000 ffc0 	bl	80015b8 <HAL_GPIO_WritePin>
 8000638:	4622      	mov	r2, r4
 800063a:	f44f 4180 	mov.w	r1, #16384	@ 0x4000
 800063e:	4809      	ldr	r0, [pc, #36]	@ (8000664 <DriveAllRowPins+0x44>)
 8000640:	f000 ffba 	bl	80015b8 <HAL_GPIO_WritePin>
 8000644:	4622      	mov	r2, r4
 8000646:	f44f 5100 	mov.w	r1, #8192	@ 0x2000
 800064a:	4807      	ldr	r0, [pc, #28]	@ (8000668 <DriveAllRowPins+0x48>)
 800064c:	f000 ffb4 	bl	80015b8 <HAL_GPIO_WritePin>
 8000650:	4622      	mov	r2, r4
 8000652:	f44f 4180 	mov.w	r1, #16384	@ 0x4000
 8000656:	4804      	ldr	r0, [pc, #16]	@ (8000668 <DriveAllRowPins+0x48>)
 8000658:	e8bd 4010 	ldmia.w	sp!, {r4, lr}
 800065c:	f000 bfac 	b.w	80015b8 <HAL_GPIO_WritePin>
 8000660:	58020400 	.word	0x58020400
 8000664:	58021800 	.word	0x58021800
 8000668:	58021000 	.word	0x58021000

0800066c <DriveOneRowPin>:
 800066c:	460a      	mov	r2, r1
 800066e:	b508      	push	{r3, lr}
 8000670:	2803      	cmp	r0, #3
 8000672:	d838      	bhi.n	80006e6 <DriveOneRowPin+0x7a>
 8000674:	e8df f000 	tbb	[pc, r0]
 8000678:	34312e02 	.word	0x34312e02
 800067c:	b1c1      	cbz	r1, 80006b0 <DriveOneRowPin+0x44>
 800067e:	2201      	movs	r2, #1
 8000680:	2140      	movs	r1, #64	@ 0x40
 8000682:	4819      	ldr	r0, [pc, #100]	@ (80006e8 <DriveOneRowPin+0x7c>)
 8000684:	f000 ff98 	bl	80015b8 <HAL_GPIO_WritePin>
 8000688:	2201      	movs	r2, #1
 800068a:	f44f 4180 	mov.w	r1, #16384	@ 0x4000
 800068e:	4817      	ldr	r0, [pc, #92]	@ (80006ec <DriveOneRowPin+0x80>)
 8000690:	f000 ff92 	bl	80015b8 <HAL_GPIO_WritePin>
 8000694:	2201      	movs	r2, #1
 8000696:	f44f 5100 	mov.w	r1, #8192	@ 0x2000
 800069a:	4815      	ldr	r0, [pc, #84]	@ (80006f0 <DriveOneRowPin+0x84>)
 800069c:	f000 ff8c 	bl	80015b8 <HAL_GPIO_WritePin>
 80006a0:	2201      	movs	r2, #1
 80006a2:	f44f 4180 	mov.w	r1, #16384	@ 0x4000
 80006a6:	4812      	ldr	r0, [pc, #72]	@ (80006f0 <DriveOneRowPin+0x84>)
 80006a8:	e8bd 4008 	ldmia.w	sp!, {r3, lr}
 80006ac:	f000 bf84 	b.w	80015b8 <HAL_GPIO_WritePin>
 80006b0:	2140      	movs	r1, #64	@ 0x40
 80006b2:	480d      	ldr	r0, [pc, #52]	@ (80006e8 <DriveOneRowPin+0x7c>)
 80006b4:	f000 ff80 	bl	80015b8 <HAL_GPIO_WritePin>
 80006b8:	2200      	movs	r2, #0
 80006ba:	f44f 4180 	mov.w	r1, #16384	@ 0x4000
 80006be:	480b      	ldr	r0, [pc, #44]	@ (80006ec <DriveOneRowPin+0x80>)
 80006c0:	f000 ff7a 	bl	80015b8 <HAL_GPIO_WritePin>
 80006c4:	2200      	movs	r2, #0
 80006c6:	f44f 5100 	mov.w	r1, #8192	@ 0x2000
 80006ca:	4809      	ldr	r0, [pc, #36]	@ (80006f0 <DriveOneRowPin+0x84>)
 80006cc:	f000 ff74 	bl	80015b8 <HAL_GPIO_WritePin>
 80006d0:	2200      	movs	r2, #0
 80006d2:	e7e6      	b.n	80006a2 <DriveOneRowPin+0x36>
 80006d4:	2900      	cmp	r1, #0
 80006d6:	d1d7      	bne.n	8000688 <DriveOneRowPin+0x1c>
 80006d8:	e7ee      	b.n	80006b8 <DriveOneRowPin+0x4c>
 80006da:	2900      	cmp	r1, #0
 80006dc:	d1da      	bne.n	8000694 <DriveOneRowPin+0x28>
 80006de:	e7f1      	b.n	80006c4 <DriveOneRowPin+0x58>
 80006e0:	2900      	cmp	r1, #0
 80006e2:	d0f5      	beq.n	80006d0 <DriveOneRowPin+0x64>
 80006e4:	e7dc      	b.n	80006a0 <DriveOneRowPin+0x34>
 80006e6:	bd08      	pop	{r3, pc}
 80006e8:	58020400 	.word	0x58020400
 80006ec:	58021800 	.word	0x58021800
 80006f0:	58021000 	.word	0x58021000

080006f4 <ReadOneColPin>:
 80006f4:	b508      	push	{r3, lr}
 80006f6:	2804      	cmp	r0, #4
 80006f8:	d814      	bhi.n	8000724 <ReadOneColPin+0x30>
 80006fa:	e8df f000 	tbb	[pc, r0]
 80006fe:	0603      	.short	0x0603
 8000700:	0d08      	.short	0x0d08
 8000702:	0f          	.byte	0x0f
 8000703:	00          	.byte	0x00
 8000704:	2101      	movs	r1, #1
 8000706:	4809      	ldr	r0, [pc, #36]	@ (800072c <ReadOneColPin+0x38>)
 8000708:	e003      	b.n	8000712 <ReadOneColPin+0x1e>
 800070a:	2108      	movs	r1, #8
 800070c:	e7fb      	b.n	8000706 <ReadOneColPin+0x12>
 800070e:	2102      	movs	r1, #2
 8000710:	4807      	ldr	r0, [pc, #28]	@ (8000730 <ReadOneColPin+0x3c>)
 8000712:	f000 ff4b 	bl	80015ac <HAL_GPIO_ReadPin>
 8000716:	bd08      	pop	{r3, pc}
 8000718:	2104      	movs	r1, #4
 800071a:	e7f4      	b.n	8000706 <ReadOneColPin+0x12>
 800071c:	f44f 6100 	mov.w	r1, #2048	@ 0x800
 8000720:	4804      	ldr	r0, [pc, #16]	@ (8000734 <ReadOneColPin+0x40>)
 8000722:	e7f6      	b.n	8000712 <ReadOneColPin+0x1e>
 8000724:	f04f 30ff 	mov.w	r0, #4294967295
 8000728:	e7f5      	b.n	8000716 <ReadOneColPin+0x22>
 800072a:	bf00      	nop
 800072c:	58020800 	.word	0x58020800
 8000730:	58020400 	.word	0x58020400
 8000734:	58021400 	.word	0x58021400

08000738 <SystemClock_Config>:
 8000738:	b510      	push	{r4, lr}
 800073a:	b09c      	sub	sp, #112	@ 0x70
 800073c:	224c      	movs	r2, #76	@ 0x4c
 800073e:	2100      	movs	r1, #0
 8000740:	a809      	add	r0, sp, #36	@ 0x24
 8000742:	f003 f8eb 	bl	800391c <memset>
 8000746:	2220      	movs	r2, #32
 8000748:	2100      	movs	r1, #0
 800074a:	a801      	add	r0, sp, #4
 800074c:	f003 f8e6 	bl	800391c <memset>
 8000750:	4b21      	ldr	r3, [pc, #132]	@ (80007d8 <SystemClock_Config+0xa0>)
 8000752:	f04f 32ff 	mov.w	r2, #4294967295
 8000756:	2004      	movs	r0, #4
 8000758:	f8c3 20b0 	str.w	r2, [r3, #176]	@ 0xb0
 800075c:	f001 f9e0 	bl	8001b20 <HAL_PWREx_ConfigSupply>
 8000760:	2300      	movs	r3, #0
 8000762:	9300      	str	r3, [sp, #0]
 8000764:	4b1d      	ldr	r3, [pc, #116]	@ (80007dc <SystemClock_Config+0xa4>)
 8000766:	699a      	ldr	r2, [r3, #24]
 8000768:	f442 4240 	orr.w	r2, r2, #49152	@ 0xc000
 800076c:	619a      	str	r2, [r3, #24]
 800076e:	699a      	ldr	r2, [r3, #24]
 8000770:	f402 4240 	and.w	r2, r2, #49152	@ 0xc000
 8000774:	9200      	str	r2, [sp, #0]
 8000776:	9a00      	ldr	r2, [sp, #0]
 8000778:	699a      	ldr	r2, [r3, #24]
 800077a:	0491      	lsls	r1, r2, #18
 800077c:	d5fc      	bpl.n	8000778 <SystemClock_Config+0x40>
 800077e:	2302      	movs	r3, #2
 8000780:	2240      	movs	r2, #64	@ 0x40
 8000782:	2104      	movs	r1, #4
 8000784:	2008      	movs	r0, #8
 8000786:	2401      	movs	r4, #1
 8000788:	9309      	str	r3, [sp, #36]	@ 0x24
 800078a:	9312      	str	r3, [sp, #72]	@ 0x48
 800078c:	e9cd 0315 	strd	r0, r3, [sp, #84]	@ 0x54
 8000790:	e9cd 420c 	strd	r4, r2, [sp, #48]	@ 0x30
 8000794:	e9cd 1317 	strd	r1, r3, [sp, #92]	@ 0x5c
 8000798:	2200      	movs	r2, #0
 800079a:	230c      	movs	r3, #12
 800079c:	a809      	add	r0, sp, #36	@ 0x24
 800079e:	921b      	str	r2, [sp, #108]	@ 0x6c
 80007a0:	e9cd 2113 	strd	r2, r1, [sp, #76]	@ 0x4c
 80007a4:	e9cd 3219 	strd	r3, r2, [sp, #100]	@ 0x64
 80007a8:	f001 f9f6 	bl	8001b98 <HAL_RCC_OscConfig>
 80007ac:	b108      	cbz	r0, 80007b2 <SystemClock_Config+0x7a>
 80007ae:	b672      	cpsid	i
 80007b0:	e7fe      	b.n	80007b0 <SystemClock_Config+0x78>
 80007b2:	223f      	movs	r2, #63	@ 0x3f
 80007b4:	2303      	movs	r3, #3
 80007b6:	4621      	mov	r1, r4
 80007b8:	e9cd 0003 	strd	r0, r0, [sp, #12]
 80007bc:	e9cd 0005 	strd	r0, r0, [sp, #20]
 80007c0:	e9cd 0007 	strd	r0, r0, [sp, #28]
 80007c4:	a801      	add	r0, sp, #4
 80007c6:	e9cd 2301 	strd	r2, r3, [sp, #4]
 80007ca:	f001 fd2f 	bl	800222c <HAL_RCC_ClockConfig>
 80007ce:	b108      	cbz	r0, 80007d4 <SystemClock_Config+0x9c>
 80007d0:	b672      	cpsid	i
 80007d2:	e7fe      	b.n	80007d2 <SystemClock_Config+0x9a>
 80007d4:	b01c      	add	sp, #112	@ 0x70
 80007d6:	bd10      	pop	{r4, pc}
 80007d8:	58024400 	.word	0x58024400
 80007dc:	58024800 	.word	0x58024800

080007e0 <main>:
 80007e0:	e92d 43f0 	stmdb	sp!, {r4, r5, r6, r7, r8, r9, lr}
 80007e4:	b08f      	sub	sp, #60	@ 0x3c
 80007e6:	2210      	movs	r2, #16
 80007e8:	2100      	movs	r1, #0
 80007ea:	2400      	movs	r4, #0
 80007ec:	a809      	add	r0, sp, #36	@ 0x24
 80007ee:	2601      	movs	r6, #1
 80007f0:	f003 f894 	bl	800391c <memset>
 80007f4:	2702      	movs	r7, #2
 80007f6:	f000 fd85 	bl	8001304 <HAL_MPU_Disable>
 80007fa:	f248 731f 	movw	r3, #34591	@ 0x871f
 80007fe:	a809      	add	r0, sp, #36	@ 0x24
 8000800:	f8ad 6024 	strh.w	r6, [sp, #36]	@ 0x24
 8000804:	4da3      	ldr	r5, [pc, #652]	@ (8000a94 <main+0x2b4>)
 8000806:	e9cd 430a 	strd	r4, r3, [sp, #40]	@ 0x28
 800080a:	f240 1301 	movw	r3, #257	@ 0x101
 800080e:	930c      	str	r3, [sp, #48]	@ 0x30
 8000810:	f000 fd96 	bl	8001340 <HAL_MPU_ConfigRegion>
 8000814:	2004      	movs	r0, #4
 8000816:	f000 fd83 	bl	8001320 <HAL_MPU_Enable>
 800081a:	f000 fcbb 	bl	8001194 <HAL_Init>
 800081e:	f7ff ff8b 	bl	8000738 <SystemClock_Config>
 8000822:	2214      	movs	r2, #20
 8000824:	4621      	mov	r1, r4
 8000826:	a809      	add	r0, sp, #36	@ 0x24
 8000828:	f003 f878 	bl	800391c <memset>
 800082c:	4b9a      	ldr	r3, [pc, #616]	@ (8000a98 <main+0x2b8>)
 800082e:	f44f 41c0 	mov.w	r1, #24576	@ 0x6000
 8000832:	489a      	ldr	r0, [pc, #616]	@ (8000a9c <main+0x2bc>)
 8000834:	f8d3 2140 	ldr.w	r2, [r3, #320]	@ 0x140
 8000838:	f042 0204 	orr.w	r2, r2, #4
 800083c:	f8c3 2140 	str.w	r2, [r3, #320]	@ 0x140
 8000840:	f8d3 2140 	ldr.w	r2, [r3, #320]	@ 0x140
 8000844:	f002 0204 	and.w	r2, r2, #4
 8000848:	9203      	str	r2, [sp, #12]
 800084a:	9a03      	ldr	r2, [sp, #12]
 800084c:	f8d3 2140 	ldr.w	r2, [r3, #320]	@ 0x140
 8000850:	f042 0280 	orr.w	r2, r2, #128	@ 0x80
 8000854:	f8c3 2140 	str.w	r2, [r3, #320]	@ 0x140
 8000858:	f8d3 2140 	ldr.w	r2, [r3, #320]	@ 0x140
 800085c:	f002 0280 	and.w	r2, r2, #128	@ 0x80
 8000860:	9204      	str	r2, [sp, #16]
 8000862:	9a04      	ldr	r2, [sp, #16]
 8000864:	f8d3 2140 	ldr.w	r2, [r3, #320]	@ 0x140
 8000868:	f042 0202 	orr.w	r2, r2, #2
 800086c:	f8c3 2140 	str.w	r2, [r3, #320]	@ 0x140
 8000870:	f8d3 2140 	ldr.w	r2, [r3, #320]	@ 0x140
 8000874:	f002 0202 	and.w	r2, r2, #2
 8000878:	9205      	str	r2, [sp, #20]
 800087a:	9a05      	ldr	r2, [sp, #20]
 800087c:	f8d3 2140 	ldr.w	r2, [r3, #320]	@ 0x140
 8000880:	f042 0220 	orr.w	r2, r2, #32
 8000884:	f8c3 2140 	str.w	r2, [r3, #320]	@ 0x140
 8000888:	f8d3 2140 	ldr.w	r2, [r3, #320]	@ 0x140
 800088c:	f002 0220 	and.w	r2, r2, #32
 8000890:	9206      	str	r2, [sp, #24]
 8000892:	9a06      	ldr	r2, [sp, #24]
 8000894:	f8d3 2140 	ldr.w	r2, [r3, #320]	@ 0x140
 8000898:	f042 0210 	orr.w	r2, r2, #16
 800089c:	f8c3 2140 	str.w	r2, [r3, #320]	@ 0x140
 80008a0:	f8d3 2140 	ldr.w	r2, [r3, #320]	@ 0x140
 80008a4:	f002 0210 	and.w	r2, r2, #16
 80008a8:	9207      	str	r2, [sp, #28]
 80008aa:	9a07      	ldr	r2, [sp, #28]
 80008ac:	f8d3 2140 	ldr.w	r2, [r3, #320]	@ 0x140
 80008b0:	f042 0240 	orr.w	r2, r2, #64	@ 0x40
 80008b4:	f8c3 2140 	str.w	r2, [r3, #320]	@ 0x140
 80008b8:	4622      	mov	r2, r4
 80008ba:	f8d3 3140 	ldr.w	r3, [r3, #320]	@ 0x140
 80008be:	f003 0340 	and.w	r3, r3, #64	@ 0x40
 80008c2:	9308      	str	r3, [sp, #32]
 80008c4:	9b08      	ldr	r3, [sp, #32]
 80008c6:	f000 fe77 	bl	80015b8 <HAL_GPIO_WritePin>
 80008ca:	4622      	mov	r2, r4
 80008cc:	f44f 4180 	mov.w	r1, #16384	@ 0x4000
 80008d0:	4873      	ldr	r0, [pc, #460]	@ (8000aa0 <main+0x2c0>)
 80008d2:	f000 fe71 	bl	80015b8 <HAL_GPIO_WritePin>
 80008d6:	4622      	mov	r2, r4
 80008d8:	2140      	movs	r1, #64	@ 0x40
 80008da:	4872      	ldr	r0, [pc, #456]	@ (8000aa4 <main+0x2c4>)
 80008dc:	f000 fe6c 	bl	80015b8 <HAL_GPIO_WritePin>
 80008e0:	230d      	movs	r3, #13
 80008e2:	a909      	add	r1, sp, #36	@ 0x24
 80008e4:	4870      	ldr	r0, [pc, #448]	@ (8000aa8 <main+0x2c8>)
 80008e6:	960b      	str	r6, [sp, #44]	@ 0x2c
 80008e8:	e9cd 3409 	strd	r3, r4, [sp, #36]	@ 0x24
 80008ec:	f000 fd76 	bl	80013dc <HAL_GPIO_Init>
 80008f0:	a909      	add	r1, sp, #36	@ 0x24
 80008f2:	486c      	ldr	r0, [pc, #432]	@ (8000aa4 <main+0x2c4>)
 80008f4:	960b      	str	r6, [sp, #44]	@ 0x2c
 80008f6:	e9cd 7409 	strd	r7, r4, [sp, #36]	@ 0x24
 80008fa:	f000 fd6f 	bl	80013dc <HAL_GPIO_Init>
 80008fe:	f44f 6300 	mov.w	r3, #2048	@ 0x800
 8000902:	a909      	add	r1, sp, #36	@ 0x24
 8000904:	4869      	ldr	r0, [pc, #420]	@ (8000aac <main+0x2cc>)
 8000906:	960b      	str	r6, [sp, #44]	@ 0x2c
 8000908:	e9cd 3409 	strd	r3, r4, [sp, #36]	@ 0x24
 800090c:	f000 fd66 	bl	80013dc <HAL_GPIO_Init>
 8000910:	f44f 43c0 	mov.w	r3, #24576	@ 0x6000
 8000914:	a909      	add	r1, sp, #36	@ 0x24
 8000916:	4861      	ldr	r0, [pc, #388]	@ (8000a9c <main+0x2bc>)
 8000918:	e9cd 3609 	strd	r3, r6, [sp, #36]	@ 0x24
 800091c:	e9cd 440b 	strd	r4, r4, [sp, #44]	@ 0x2c
 8000920:	f000 fd5c 	bl	80013dc <HAL_GPIO_Init>
 8000924:	f44f 4380 	mov.w	r3, #16384	@ 0x4000
 8000928:	a909      	add	r1, sp, #36	@ 0x24
 800092a:	485d      	ldr	r0, [pc, #372]	@ (8000aa0 <main+0x2c0>)
 800092c:	e9cd 3609 	strd	r3, r6, [sp, #36]	@ 0x24
 8000930:	e9cd 440b 	strd	r4, r4, [sp, #44]	@ 0x2c
 8000934:	f000 fd52 	bl	80013dc <HAL_GPIO_Init>
 8000938:	2340      	movs	r3, #64	@ 0x40
 800093a:	a909      	add	r1, sp, #36	@ 0x24
 800093c:	4859      	ldr	r0, [pc, #356]	@ (8000aa4 <main+0x2c4>)
 800093e:	e9cd 3609 	strd	r3, r6, [sp, #36]	@ 0x24
 8000942:	e9cd 440b 	strd	r4, r4, [sp, #44]	@ 0x2c
 8000946:	f000 fd49 	bl	80013dc <HAL_GPIO_Init>
 800094a:	4b59      	ldr	r3, [pc, #356]	@ (8000ab0 <main+0x2d0>)
 800094c:	4628      	mov	r0, r5
 800094e:	602b      	str	r3, [r5, #0]
 8000950:	f1a3 438f 	sub.w	r3, r3, #1199570944	@ 0x47800000
 8000954:	f5a3 2379 	sub.w	r3, r3, #1019904	@ 0xf9000
 8000958:	f6a3 6344 	subw	r3, r3, #3652	@ 0xe44
 800095c:	e9c5 6403 	strd	r6, r4, [r5, #12]
 8000960:	e9c5 3401 	strd	r3, r4, [r5, #4]
 8000964:	e9c5 4405 	strd	r4, r4, [r5, #20]
 8000968:	e9c5 4407 	strd	r4, r4, [r5, #28]
 800096c:	f000 ff5d 	bl	800182a <HAL_I2C_Init>
 8000970:	4601      	mov	r1, r0
 8000972:	b108      	cbz	r0, 8000978 <main+0x198>
 8000974:	b672      	cpsid	i
 8000976:	e7fe      	b.n	8000976 <main+0x196>
 8000978:	4628      	mov	r0, r5
 800097a:	f001 f885 	bl	8001a88 <HAL_I2CEx_ConfigAnalogFilter>
 800097e:	4601      	mov	r1, r0
 8000980:	b108      	cbz	r0, 8000986 <main+0x1a6>
 8000982:	b672      	cpsid	i
 8000984:	e7fe      	b.n	8000984 <main+0x1a4>
 8000986:	4628      	mov	r0, r5
 8000988:	f001 f8a4 	bl	8001ad4 <HAL_I2CEx_ConfigDigitalFilter>
 800098c:	4604      	mov	r4, r0
 800098e:	b108      	cbz	r0, 8000994 <main+0x1b4>
 8000990:	b672      	cpsid	i
 8000992:	e7fe      	b.n	8000992 <main+0x1b2>
 8000994:	f000 f974 	bl	8000c80 <ssd1306_Init>
 8000998:	4620      	mov	r0, r4
 800099a:	f000 fac9 	bl	8000f30 <BSP_LED_Init>
 800099e:	4630      	mov	r0, r6
 80009a0:	f000 fac6 	bl	8000f30 <BSP_LED_Init>
 80009a4:	4638      	mov	r0, r7
 80009a6:	f000 fac3 	bl	8000f30 <BSP_LED_Init>
 80009aa:	4631      	mov	r1, r6
 80009ac:	4620      	mov	r0, r4
 80009ae:	f000 fb0b 	bl	8000fc8 <BSP_PB_Init>
 80009b2:	4940      	ldr	r1, [pc, #256]	@ (8000ab4 <main+0x2d4>)
 80009b4:	f44f 33e1 	mov.w	r3, #115200	@ 0x1c200
 80009b8:	4620      	mov	r0, r4
 80009ba:	608c      	str	r4, [r1, #8]
 80009bc:	818c      	strh	r4, [r1, #12]
 80009be:	e9c1 3400 	strd	r3, r4, [r1]
 80009c2:	f000 fb6b 	bl	800109c <BSP_COM_Init>
 80009c6:	2800      	cmp	r0, #0
 80009c8:	d160      	bne.n	8000a8c <main+0x2ac>
 80009ca:	4d3b      	ldr	r5, [pc, #236]	@ (8000ab8 <main+0x2d8>)
 80009cc:	4e3b      	ldr	r6, [pc, #236]	@ (8000abc <main+0x2dc>)
 80009ce:	892f      	ldrh	r7, [r5, #8]
 80009d0:	b2f6      	uxtb	r6, r6
 80009d2:	6828      	ldr	r0, [r5, #0]
 80009d4:	ab09      	add	r3, sp, #36	@ 0x24
 80009d6:	6869      	ldr	r1, [r5, #4]
 80009d8:	2400      	movs	r4, #0
 80009da:	f10d 0824 	add.w	r8, sp, #36	@ 0x24
 80009de:	c303      	stmia	r3!, {r0, r1}
 80009e0:	2001      	movs	r0, #1
 80009e2:	801f      	strh	r7, [r3, #0]
 80009e4:	f000 f898 	bl	8000b18 <ssd1306_Fill>
 80009e8:	2100      	movs	r1, #0
 80009ea:	2002      	movs	r0, #2
 80009ec:	46c1      	mov	r9, r8
 80009ee:	f000 f929 	bl	8000c44 <ssd1306_SetCursor>
 80009f2:	4b33      	ldr	r3, [pc, #204]	@ (8000ac0 <main+0x2e0>)
 80009f4:	4630      	mov	r0, r6
 80009f6:	9400      	str	r4, [sp, #0]
 80009f8:	cb0e      	ldmia	r3, {r1, r2, r3}
 80009fa:	f000 f8c9 	bl	8000b90 <ssd1306_WriteChar>
 80009fe:	4620      	mov	r0, r4
 8000a00:	f7ff fe0e 	bl	8000620 <DriveAllRowPins>
 8000a04:	200a      	movs	r0, #10
 8000a06:	f000 fc05 	bl	8001214 <HAL_Delay>
 8000a0a:	4620      	mov	r0, r4
 8000a0c:	3401      	adds	r4, #1
 8000a0e:	f7ff fe71 	bl	80006f4 <ReadOneColPin>
 8000a12:	f829 0b02 	strh.w	r0, [r9], #2
 8000a16:	2c05      	cmp	r4, #5
 8000a18:	d1f7      	bne.n	8000a0a <main+0x22a>
 8000a1a:	f8bd 3024 	ldrh.w	r3, [sp, #36]	@ 0x24
 8000a1e:	f8bd 2026 	ldrh.w	r2, [sp, #38]	@ 0x26
 8000a22:	2a00      	cmp	r2, #0
 8000a24:	bf18      	it	ne
 8000a26:	2b00      	cmpne	r3, #0
 8000a28:	f8bd 2028 	ldrh.w	r2, [sp, #40]	@ 0x28
 8000a2c:	bf0c      	ite	eq
 8000a2e:	2301      	moveq	r3, #1
 8000a30:	2300      	movne	r3, #0
 8000a32:	2a00      	cmp	r2, #0
 8000a34:	bf08      	it	eq
 8000a36:	f043 0301 	orreq.w	r3, r3, #1
 8000a3a:	f8bd 202a 	ldrh.w	r2, [sp, #42]	@ 0x2a
 8000a3e:	2a00      	cmp	r2, #0
 8000a40:	bf08      	it	eq
 8000a42:	f043 0301 	orreq.w	r3, r3, #1
 8000a46:	b91b      	cbnz	r3, 8000a50 <main+0x270>
 8000a48:	f8bd 302c 	ldrh.w	r3, [sp, #44]	@ 0x2c
 8000a4c:	2b00      	cmp	r3, #0
 8000a4e:	d1c0      	bne.n	80009d2 <main+0x1f2>
 8000a50:	2000      	movs	r0, #0
 8000a52:	f838 3b02 	ldrh.w	r3, [r8], #2
 8000a56:	b1db      	cbz	r3, 8000a90 <main+0x2b0>
 8000a58:	3001      	adds	r0, #1
 8000a5a:	2805      	cmp	r0, #5
 8000a5c:	d1f9      	bne.n	8000a52 <main+0x272>
 8000a5e:	4604      	mov	r4, r0
 8000a60:	f04f 0800 	mov.w	r8, #0
 8000a64:	f7ff fdba 	bl	80005dc <DriveAllRowPins.part.0>
 8000a68:	2100      	movs	r1, #0
 8000a6a:	4640      	mov	r0, r8
 8000a6c:	f7ff fdfe 	bl	800066c <DriveOneRowPin>
 8000a70:	200a      	movs	r0, #10
 8000a72:	f000 fbcf 	bl	8001214 <HAL_Delay>
 8000a76:	4620      	mov	r0, r4
 8000a78:	f7ff fe3c 	bl	80006f4 <ReadOneColPin>
 8000a7c:	2800      	cmp	r0, #0
 8000a7e:	d0a8      	beq.n	80009d2 <main+0x1f2>
 8000a80:	f108 0801 	add.w	r8, r8, #1
 8000a84:	f1b8 0f04 	cmp.w	r8, #4
 8000a88:	d1ec      	bne.n	8000a64 <main+0x284>
 8000a8a:	e7a2      	b.n	80009d2 <main+0x1f2>
 8000a8c:	b672      	cpsid	i
 8000a8e:	e7fe      	b.n	8000a8e <main+0x2ae>
 8000a90:	b284      	uxth	r4, r0
 8000a92:	e7e5      	b.n	8000a60 <main+0x280>
 8000a94:	24000030 	.word	0x24000030
 8000a98:	58024400 	.word	0x58024400
 8000a9c:	58021000 	.word	0x58021000
 8000aa0:	58021800 	.word	0x58021800
 8000aa4:	58020400 	.word	0x58020400
 8000aa8:	58020800 	.word	0x58020800
 8000aac:	58021400 	.word	0x58021400
 8000ab0:	58001c00 	.word	0x58001c00
 8000ab4:	24000084 	.word	0x24000084
 8000ab8:	0800398c 	.word	0x0800398c
 8000abc:	08003996 	.word	0x08003996
 8000ac0:	08003998 	.word	0x08003998

08000ac4 <Error_Handler>:
 8000ac4:	b672      	cpsid	i
 8000ac6:	e7fe      	b.n	8000ac6 <Error_Handler+0x2>

08000ac8 <ssd1306_WriteCommand>:
 8000ac8:	b57f      	push	{r0, r1, r2, r3, r4, r5, r6, lr}
 8000aca:	2301      	movs	r3, #1
 8000acc:	f04f 32ff 	mov.w	r2, #4294967295
 8000ad0:	2178      	movs	r1, #120	@ 0x78
 8000ad2:	f88d 0017 	strb.w	r0, [sp, #23]
 8000ad6:	4806      	ldr	r0, [pc, #24]	@ (8000af0 <ssd1306_WriteCommand+0x28>)
 8000ad8:	e9cd 3201 	strd	r3, r2, [sp, #4]
 8000adc:	f10d 0217 	add.w	r2, sp, #23
 8000ae0:	9200      	str	r2, [sp, #0]
 8000ae2:	2200      	movs	r2, #0
 8000ae4:	f000 fef6 	bl	80018d4 <HAL_I2C_Mem_Write>
 8000ae8:	b007      	add	sp, #28
 8000aea:	f85d fb04 	ldr.w	pc, [sp], #4
 8000aee:	bf00      	nop
 8000af0:	24000030 	.word	0x24000030

08000af4 <ssd1306_WriteData>:
 8000af4:	b51f      	push	{r0, r1, r2, r3, r4, lr}
 8000af6:	f04f 33ff 	mov.w	r3, #4294967295
 8000afa:	b289      	uxth	r1, r1
 8000afc:	2240      	movs	r2, #64	@ 0x40
 8000afe:	9302      	str	r3, [sp, #8]
 8000b00:	2301      	movs	r3, #1
 8000b02:	e9cd 0100 	strd	r0, r1, [sp]
 8000b06:	2178      	movs	r1, #120	@ 0x78
 8000b08:	4802      	ldr	r0, [pc, #8]	@ (8000b14 <ssd1306_WriteData+0x20>)
 8000b0a:	f000 fee3 	bl	80018d4 <HAL_I2C_Mem_Write>
 8000b0e:	b005      	add	sp, #20
 8000b10:	f85d fb04 	ldr.w	pc, [sp], #4
 8000b14:	24000030 	.word	0x24000030

08000b18 <ssd1306_Fill>:
 8000b18:	2800      	cmp	r0, #0
 8000b1a:	f44f 6280 	mov.w	r2, #1024	@ 0x400
 8000b1e:	4803      	ldr	r0, [pc, #12]	@ (8000b2c <ssd1306_Fill+0x14>)
 8000b20:	bf14      	ite	ne
 8000b22:	21ff      	movne	r1, #255	@ 0xff
 8000b24:	2100      	moveq	r1, #0
 8000b26:	f002 bef9 	b.w	800391c <memset>
 8000b2a:	bf00      	nop
 8000b2c:	2400009a 	.word	0x2400009a

08000b30 <ssd1306_UpdateScreen>:
 8000b30:	b538      	push	{r3, r4, r5, lr}
 8000b32:	4d0a      	ldr	r5, [pc, #40]	@ (8000b5c <ssd1306_UpdateScreen+0x2c>)
 8000b34:	24b0      	movs	r4, #176	@ 0xb0
 8000b36:	4620      	mov	r0, r4
 8000b38:	3401      	adds	r4, #1
 8000b3a:	f7ff ffc5 	bl	8000ac8 <ssd1306_WriteCommand>
 8000b3e:	2000      	movs	r0, #0
 8000b40:	f7ff ffc2 	bl	8000ac8 <ssd1306_WriteCommand>
 8000b44:	2010      	movs	r0, #16
 8000b46:	b2e4      	uxtb	r4, r4
 8000b48:	f7ff ffbe 	bl	8000ac8 <ssd1306_WriteCommand>
 8000b4c:	4628      	mov	r0, r5
 8000b4e:	2180      	movs	r1, #128	@ 0x80
 8000b50:	3580      	adds	r5, #128	@ 0x80
 8000b52:	f7ff ffcf 	bl	8000af4 <ssd1306_WriteData>
 8000b56:	2cb8      	cmp	r4, #184	@ 0xb8
 8000b58:	d1ed      	bne.n	8000b36 <ssd1306_UpdateScreen+0x6>
 8000b5a:	bd38      	pop	{r3, r4, r5, pc}
 8000b5c:	2400009a 	.word	0x2400009a

08000b60 <ssd1306_DrawPixel>:
 8000b60:	0603      	lsls	r3, r0, #24
 8000b62:	b530      	push	{r4, r5, lr}
 8000b64:	d410      	bmi.n	8000b88 <ssd1306_DrawPixel+0x28>
 8000b66:	293f      	cmp	r1, #63	@ 0x3f
 8000b68:	d80e      	bhi.n	8000b88 <ssd1306_DrawPixel+0x28>
 8000b6a:	08cb      	lsrs	r3, r1, #3
 8000b6c:	4d07      	ldr	r5, [pc, #28]	@ (8000b8c <ssd1306_DrawPixel+0x2c>)
 8000b6e:	2401      	movs	r4, #1
 8000b70:	f001 0107 	and.w	r1, r1, #7
 8000b74:	eb00 10c3 	add.w	r0, r0, r3, lsl #7
 8000b78:	fa04 f101 	lsl.w	r1, r4, r1
 8000b7c:	42a2      	cmp	r2, r4
 8000b7e:	5c2b      	ldrb	r3, [r5, r0]
 8000b80:	bf0c      	ite	eq
 8000b82:	430b      	orreq	r3, r1
 8000b84:	438b      	bicne	r3, r1
 8000b86:	542b      	strb	r3, [r5, r0]
 8000b88:	bd30      	pop	{r4, r5, pc}
 8000b8a:	bf00      	nop
 8000b8c:	2400009a 	.word	0x2400009a

08000b90 <ssd1306_WriteChar>:
 8000b90:	e92d 4ff0 	stmdb	sp!, {r4, r5, r6, r7, r8, r9, sl, fp, lr}
 8000b94:	b089      	sub	sp, #36	@ 0x24
 8000b96:	4604      	mov	r4, r0
 8000b98:	a808      	add	r0, sp, #32
 8000b9a:	f1a4 0a20 	sub.w	sl, r4, #32
 8000b9e:	e900 000e 	stmdb	r0, {r1, r2, r3}
 8000ba2:	f89d 3048 	ldrb.w	r3, [sp, #72]	@ 0x48
 8000ba6:	9302      	str	r3, [sp, #8]
 8000ba8:	fa5f f38a 	uxtb.w	r3, sl
 8000bac:	2b5e      	cmp	r3, #94	@ 0x5e
 8000bae:	d845      	bhi.n	8000c3c <ssd1306_WriteChar+0xac>
 8000bb0:	4a23      	ldr	r2, [pc, #140]	@ (8000c40 <ssd1306_WriteChar+0xb0>)
 8000bb2:	f89d 5014 	ldrb.w	r5, [sp, #20]
 8000bb6:	8816      	ldrh	r6, [r2, #0]
 8000bb8:	1973      	adds	r3, r6, r5
 8000bba:	2b80      	cmp	r3, #128	@ 0x80
 8000bbc:	dc3e      	bgt.n	8000c3c <ssd1306_WriteChar+0xac>
 8000bbe:	8853      	ldrh	r3, [r2, #2]
 8000bc0:	f89d b015 	ldrb.w	fp, [sp, #21]
 8000bc4:	9300      	str	r3, [sp, #0]
 8000bc6:	eb03 020b 	add.w	r2, r3, fp
 8000bca:	2a40      	cmp	r2, #64	@ 0x40
 8000bcc:	dc36      	bgt.n	8000c3c <ssd1306_WriteChar+0xac>
 8000bce:	fb0a f70b 	mul.w	r7, sl, fp
 8000bd2:	9b07      	ldr	r3, [sp, #28]
 8000bd4:	f04f 0900 	mov.w	r9, #0
 8000bd8:	007f      	lsls	r7, r7, #1
 8000bda:	9301      	str	r3, [sp, #4]
 8000bdc:	45cb      	cmp	fp, r9
 8000bde:	d80a      	bhi.n	8000bf6 <ssd1306_WriteChar+0x66>
 8000be0:	9b01      	ldr	r3, [sp, #4]
 8000be2:	b10b      	cbz	r3, 8000be8 <ssd1306_WriteChar+0x58>
 8000be4:	f813 500a 	ldrb.w	r5, [r3, sl]
 8000be8:	442e      	add	r6, r5
 8000bea:	4b15      	ldr	r3, [pc, #84]	@ (8000c40 <ssd1306_WriteChar+0xb0>)
 8000bec:	801e      	strh	r6, [r3, #0]
 8000bee:	4620      	mov	r0, r4
 8000bf0:	b009      	add	sp, #36	@ 0x24
 8000bf2:	e8bd 8ff0 	ldmia.w	sp!, {r4, r5, r6, r7, r8, r9, sl, fp, pc}
 8000bf6:	9a06      	ldr	r2, [sp, #24]
 8000bf8:	f04f 0800 	mov.w	r8, #0
 8000bfc:	5bd3      	ldrh	r3, [r2, r7]
 8000bfe:	9304      	str	r3, [sp, #16]
 8000c00:	9b00      	ldr	r3, [sp, #0]
 8000c02:	eb09 0203 	add.w	r2, r9, r3
 8000c06:	b2d3      	uxtb	r3, r2
 8000c08:	9303      	str	r3, [sp, #12]
 8000c0a:	4545      	cmp	r5, r8
 8000c0c:	d803      	bhi.n	8000c16 <ssd1306_WriteChar+0x86>
 8000c0e:	f109 0901 	add.w	r9, r9, #1
 8000c12:	3702      	adds	r7, #2
 8000c14:	e7e2      	b.n	8000bdc <ssd1306_WriteChar+0x4c>
 8000c16:	9b04      	ldr	r3, [sp, #16]
 8000c18:	eb08 0006 	add.w	r0, r8, r6
 8000c1c:	9903      	ldr	r1, [sp, #12]
 8000c1e:	fa03 f208 	lsl.w	r2, r3, r8
 8000c22:	b2c0      	uxtb	r0, r0
 8000c24:	f108 0801 	add.w	r8, r8, #1
 8000c28:	0413      	lsls	r3, r2, #16
 8000c2a:	bf57      	itett	pl
 8000c2c:	9b02      	ldrpl	r3, [sp, #8]
 8000c2e:	9a02      	ldrmi	r2, [sp, #8]
 8000c30:	fab3 f283 	clzpl	r2, r3
 8000c34:	0952      	lsrpl	r2, r2, #5
 8000c36:	f7ff ff93 	bl	8000b60 <ssd1306_DrawPixel>
 8000c3a:	e7e6      	b.n	8000c0a <ssd1306_WriteChar+0x7a>
 8000c3c:	2400      	movs	r4, #0
 8000c3e:	e7d6      	b.n	8000bee <ssd1306_WriteChar+0x5e>
 8000c40:	24000094 	.word	0x24000094

08000c44 <ssd1306_SetCursor>:
 8000c44:	4b01      	ldr	r3, [pc, #4]	@ (8000c4c <ssd1306_SetCursor+0x8>)
 8000c46:	8018      	strh	r0, [r3, #0]
 8000c48:	8059      	strh	r1, [r3, #2]
 8000c4a:	4770      	bx	lr
 8000c4c:	24000094 	.word	0x24000094

08000c50 <ssd1306_SetContrast>:
 8000c50:	b510      	push	{r4, lr}
 8000c52:	4604      	mov	r4, r0
 8000c54:	2081      	movs	r0, #129	@ 0x81
 8000c56:	f7ff ff37 	bl	8000ac8 <ssd1306_WriteCommand>
 8000c5a:	4620      	mov	r0, r4
 8000c5c:	e8bd 4010 	ldmia.w	sp!, {r4, lr}
 8000c60:	f7ff bf32 	b.w	8000ac8 <ssd1306_WriteCommand>

08000c64 <ssd1306_SetDisplayOn>:
 8000c64:	2800      	cmp	r0, #0
 8000c66:	4603      	mov	r3, r0
 8000c68:	4a04      	ldr	r2, [pc, #16]	@ (8000c7c <ssd1306_SetDisplayOn+0x18>)
 8000c6a:	bf0b      	itete	eq
 8000c6c:	4603      	moveq	r3, r0
 8000c6e:	2301      	movne	r3, #1
 8000c70:	20ae      	moveq	r0, #174	@ 0xae
 8000c72:	20af      	movne	r0, #175	@ 0xaf
 8000c74:	7153      	strb	r3, [r2, #5]
 8000c76:	f7ff bf27 	b.w	8000ac8 <ssd1306_WriteCommand>
 8000c7a:	bf00      	nop
 8000c7c:	24000094 	.word	0x24000094

08000c80 <ssd1306_Init>:
 8000c80:	b508      	push	{r3, lr}
 8000c82:	2064      	movs	r0, #100	@ 0x64
 8000c84:	f000 fac6 	bl	8001214 <HAL_Delay>
 8000c88:	2000      	movs	r0, #0
 8000c8a:	f7ff ffeb 	bl	8000c64 <ssd1306_SetDisplayOn>
 8000c8e:	2020      	movs	r0, #32
 8000c90:	f7ff ff1a 	bl	8000ac8 <ssd1306_WriteCommand>
 8000c94:	2000      	movs	r0, #0
 8000c96:	f7ff ff17 	bl	8000ac8 <ssd1306_WriteCommand>
 8000c9a:	20b0      	movs	r0, #176	@ 0xb0
 8000c9c:	f7ff ff14 	bl	8000ac8 <ssd1306_WriteCommand>
 8000ca0:	20c8      	movs	r0, #200	@ 0xc8
 8000ca2:	f7ff ff11 	bl	8000ac8 <ssd1306_WriteCommand>
 8000ca6:	2000      	movs	r0, #0
 8000ca8:	f7ff ff0e 	bl	8000ac8 <ssd1306_WriteCommand>
 8000cac:	2010      	movs	r0, #16
 8000cae:	f7ff ff0b 	bl	8000ac8 <ssd1306_WriteCommand>
 8000cb2:	2040      	movs	r0, #64	@ 0x40
 8000cb4:	f7ff ff08 	bl	8000ac8 <ssd1306_WriteCommand>
 8000cb8:	20ff      	movs	r0, #255	@ 0xff
 8000cba:	f7ff ffc9 	bl	8000c50 <ssd1306_SetContrast>
 8000cbe:	20a1      	movs	r0, #161	@ 0xa1
 8000cc0:	f7ff ff02 	bl	8000ac8 <ssd1306_WriteCommand>
 8000cc4:	20a6      	movs	r0, #166	@ 0xa6
 8000cc6:	f7ff feff 	bl	8000ac8 <ssd1306_WriteCommand>
 8000cca:	20a8      	movs	r0, #168	@ 0xa8
 8000ccc:	f7ff fefc 	bl	8000ac8 <ssd1306_WriteCommand>
 8000cd0:	203f      	movs	r0, #63	@ 0x3f
 8000cd2:	f7ff fef9 	bl	8000ac8 <ssd1306_WriteCommand>
 8000cd6:	20a4      	movs	r0, #164	@ 0xa4
 8000cd8:	f7ff fef6 	bl	8000ac8 <ssd1306_WriteCommand>
 8000cdc:	20d3      	movs	r0, #211	@ 0xd3
 8000cde:	f7ff fef3 	bl	8000ac8 <ssd1306_WriteCommand>
 8000ce2:	2000      	movs	r0, #0
 8000ce4:	f7ff fef0 	bl	8000ac8 <ssd1306_WriteCommand>
 8000ce8:	20d5      	movs	r0, #213	@ 0xd5
 8000cea:	f7ff feed 	bl	8000ac8 <ssd1306_WriteCommand>
 8000cee:	20f0      	movs	r0, #240	@ 0xf0
 8000cf0:	f7ff feea 	bl	8000ac8 <ssd1306_WriteCommand>
 8000cf4:	20d9      	movs	r0, #217	@ 0xd9
 8000cf6:	f7ff fee7 	bl	8000ac8 <ssd1306_WriteCommand>
 8000cfa:	2022      	movs	r0, #34	@ 0x22
 8000cfc:	f7ff fee4 	bl	8000ac8 <ssd1306_WriteCommand>
 8000d00:	20da      	movs	r0, #218	@ 0xda
 8000d02:	f7ff fee1 	bl	8000ac8 <ssd1306_WriteCommand>
 8000d06:	2012      	movs	r0, #18
 8000d08:	f7ff fede 	bl	8000ac8 <ssd1306_WriteCommand>
 8000d0c:	20db      	movs	r0, #219	@ 0xdb
 8000d0e:	f7ff fedb 	bl	8000ac8 <ssd1306_WriteCommand>
 8000d12:	2020      	movs	r0, #32
 8000d14:	f7ff fed8 	bl	8000ac8 <ssd1306_WriteCommand>
 8000d18:	208d      	movs	r0, #141	@ 0x8d
 8000d1a:	f7ff fed5 	bl	8000ac8 <ssd1306_WriteCommand>
 8000d1e:	2014      	movs	r0, #20
 8000d20:	f7ff fed2 	bl	8000ac8 <ssd1306_WriteCommand>
 8000d24:	2001      	movs	r0, #1
 8000d26:	f7ff ff9d 	bl	8000c64 <ssd1306_SetDisplayOn>
 8000d2a:	2000      	movs	r0, #0
 8000d2c:	f7ff fef4 	bl	8000b18 <ssd1306_Fill>
 8000d30:	f7ff fefe 	bl	8000b30 <ssd1306_UpdateScreen>
 8000d34:	4b03      	ldr	r3, [pc, #12]	@ (8000d44 <ssd1306_Init+0xc4>)
 8000d36:	2200      	movs	r2, #0
 8000d38:	801a      	strh	r2, [r3, #0]
 8000d3a:	805a      	strh	r2, [r3, #2]
 8000d3c:	2201      	movs	r2, #1
 8000d3e:	711a      	strb	r2, [r3, #4]
 8000d40:	bd08      	pop	{r3, pc}
 8000d42:	bf00      	nop
 8000d44:	24000094 	.word	0x24000094

08000d48 <HAL_MspInit>:
 8000d48:	4b07      	ldr	r3, [pc, #28]	@ (8000d68 <HAL_MspInit+0x20>)
 8000d4a:	b082      	sub	sp, #8
 8000d4c:	f8d3 2154 	ldr.w	r2, [r3, #340]	@ 0x154
 8000d50:	f042 0202 	orr.w	r2, r2, #2
 8000d54:	f8c3 2154 	str.w	r2, [r3, #340]	@ 0x154
 8000d58:	f8d3 3154 	ldr.w	r3, [r3, #340]	@ 0x154
 8000d5c:	f003 0302 	and.w	r3, r3, #2
 8000d60:	9301      	str	r3, [sp, #4]
 8000d62:	9b01      	ldr	r3, [sp, #4]
 8000d64:	b002      	add	sp, #8
 8000d66:	4770      	bx	lr
 8000d68:	58024400 	.word	0x58024400

08000d6c <HAL_I2C_MspInit>:
 8000d6c:	b510      	push	{r4, lr}
 8000d6e:	b0b8      	sub	sp, #224	@ 0xe0
 8000d70:	4604      	mov	r4, r0
 8000d72:	2214      	movs	r2, #20
 8000d74:	2100      	movs	r1, #0
 8000d76:	a803      	add	r0, sp, #12
 8000d78:	f002 fdd0 	bl	800391c <memset>
 8000d7c:	22c0      	movs	r2, #192	@ 0xc0
 8000d7e:	2100      	movs	r1, #0
 8000d80:	a808      	add	r0, sp, #32
 8000d82:	f002 fdcb 	bl	800391c <memset>
 8000d86:	6822      	ldr	r2, [r4, #0]
 8000d88:	4b1a      	ldr	r3, [pc, #104]	@ (8000df4 <HAL_I2C_MspInit+0x88>)
 8000d8a:	429a      	cmp	r2, r3
 8000d8c:	d130      	bne.n	8000df0 <HAL_I2C_MspInit+0x84>
 8000d8e:	2210      	movs	r2, #16
 8000d90:	2300      	movs	r3, #0
 8000d92:	a808      	add	r0, sp, #32
 8000d94:	e9cd 2308 	strd	r2, r3, [sp, #32]
 8000d98:	f001 fca4 	bl	80026e4 <HAL_RCCEx_PeriphCLKConfig>
 8000d9c:	b108      	cbz	r0, 8000da2 <HAL_I2C_MspInit+0x36>
 8000d9e:	f7ff fe91 	bl	8000ac4 <Error_Handler>
 8000da2:	4c15      	ldr	r4, [pc, #84]	@ (8000df8 <HAL_I2C_MspInit+0x8c>)
 8000da4:	f44f 4240 	mov.w	r2, #49152	@ 0xc000
 8000da8:	a903      	add	r1, sp, #12
 8000daa:	4814      	ldr	r0, [pc, #80]	@ (8000dfc <HAL_I2C_MspInit+0x90>)
 8000dac:	f8d4 3140 	ldr.w	r3, [r4, #320]	@ 0x140
 8000db0:	f043 0320 	orr.w	r3, r3, #32
 8000db4:	f8c4 3140 	str.w	r3, [r4, #320]	@ 0x140
 8000db8:	f8d4 3140 	ldr.w	r3, [r4, #320]	@ 0x140
 8000dbc:	f003 0320 	and.w	r3, r3, #32
 8000dc0:	9301      	str	r3, [sp, #4]
 8000dc2:	9b01      	ldr	r3, [sp, #4]
 8000dc4:	2312      	movs	r3, #18
 8000dc6:	e9cd 2303 	strd	r2, r3, [sp, #12]
 8000dca:	2300      	movs	r3, #0
 8000dcc:	e9cd 3305 	strd	r3, r3, [sp, #20]
 8000dd0:	2304      	movs	r3, #4
 8000dd2:	9307      	str	r3, [sp, #28]
 8000dd4:	f000 fb02 	bl	80013dc <HAL_GPIO_Init>
 8000dd8:	f8d4 3154 	ldr.w	r3, [r4, #340]	@ 0x154
 8000ddc:	f043 0380 	orr.w	r3, r3, #128	@ 0x80
 8000de0:	f8c4 3154 	str.w	r3, [r4, #340]	@ 0x154
 8000de4:	f8d4 3154 	ldr.w	r3, [r4, #340]	@ 0x154
 8000de8:	f003 0380 	and.w	r3, r3, #128	@ 0x80
 8000dec:	9302      	str	r3, [sp, #8]
 8000dee:	9b02      	ldr	r3, [sp, #8]
 8000df0:	b038      	add	sp, #224	@ 0xe0
 8000df2:	bd10      	pop	{r4, pc}
 8000df4:	58001c00 	.word	0x58001c00
 8000df8:	58024400 	.word	0x58024400
 8000dfc:	58021400 	.word	0x58021400

08000e00 <NMI_Handler>:
 8000e00:	e7fe      	b.n	8000e00 <NMI_Handler>

08000e02 <HardFault_Handler>:
 8000e02:	e7fe      	b.n	8000e02 <HardFault_Handler>

08000e04 <MemManage_Handler>:
 8000e04:	e7fe      	b.n	8000e04 <MemManage_Handler>

08000e06 <BusFault_Handler>:
 8000e06:	e7fe      	b.n	8000e06 <BusFault_Handler>

08000e08 <UsageFault_Handler>:
 8000e08:	e7fe      	b.n	8000e08 <UsageFault_Handler>

08000e0a <SVC_Handler>:
 8000e0a:	4770      	bx	lr

08000e0c <DebugMon_Handler>:
 8000e0c:	4770      	bx	lr

08000e0e <PendSV_Handler>:
 8000e0e:	4770      	bx	lr

08000e10 <SysTick_Handler>:
 8000e10:	f000 b9ee 	b.w	80011f0 <HAL_IncTick>

08000e14 <EXTI15_10_IRQHandler>:
 8000e14:	2000      	movs	r0, #0
 8000e16:	f000 b91d 	b.w	8001054 <BSP_PB_IRQHandler>
	...

08000e1c <SystemInit>:
 8000e1c:	4a20      	ldr	r2, [pc, #128]	@ (8000ea0 <SystemInit+0x84>)
 8000e1e:	f8d2 3088 	ldr.w	r3, [r2, #136]	@ 0x88
 8000e22:	f443 0370 	orr.w	r3, r3, #15728640	@ 0xf00000
 8000e26:	f8c2 3088 	str.w	r3, [r2, #136]	@ 0x88
 8000e2a:	4a1e      	ldr	r2, [pc, #120]	@ (8000ea4 <SystemInit+0x88>)
 8000e2c:	6813      	ldr	r3, [r2, #0]
 8000e2e:	f003 030f 	and.w	r3, r3, #15
 8000e32:	2b02      	cmp	r3, #2
 8000e34:	d805      	bhi.n	8000e42 <SystemInit+0x26>
 8000e36:	6813      	ldr	r3, [r2, #0]
 8000e38:	f023 030f 	bic.w	r3, r3, #15
 8000e3c:	f043 0303 	orr.w	r3, r3, #3
 8000e40:	6013      	str	r3, [r2, #0]
 8000e42:	4b19      	ldr	r3, [pc, #100]	@ (8000ea8 <SystemInit+0x8c>)
 8000e44:	681a      	ldr	r2, [r3, #0]
 8000e46:	f042 0201 	orr.w	r2, r2, #1
 8000e4a:	601a      	str	r2, [r3, #0]
 8000e4c:	2200      	movs	r2, #0
 8000e4e:	611a      	str	r2, [r3, #16]
 8000e50:	4a16      	ldr	r2, [pc, #88]	@ (8000eac <SystemInit+0x90>)
 8000e52:	6819      	ldr	r1, [r3, #0]
 8000e54:	400a      	ands	r2, r1
 8000e56:	4913      	ldr	r1, [pc, #76]	@ (8000ea4 <SystemInit+0x88>)
 8000e58:	601a      	str	r2, [r3, #0]
 8000e5a:	680a      	ldr	r2, [r1, #0]
 8000e5c:	f012 0f0c 	tst.w	r2, #12
 8000e60:	d005      	beq.n	8000e6e <SystemInit+0x52>
 8000e62:	680a      	ldr	r2, [r1, #0]
 8000e64:	f022 020f 	bic.w	r2, r2, #15
 8000e68:	f042 0203 	orr.w	r2, r2, #3
 8000e6c:	600a      	str	r2, [r1, #0]
 8000e6e:	2200      	movs	r2, #0
 8000e70:	490f      	ldr	r1, [pc, #60]	@ (8000eb0 <SystemInit+0x94>)
 8000e72:	619a      	str	r2, [r3, #24]
 8000e74:	61da      	str	r2, [r3, #28]
 8000e76:	621a      	str	r2, [r3, #32]
 8000e78:	6299      	str	r1, [r3, #40]	@ 0x28
 8000e7a:	490e      	ldr	r1, [pc, #56]	@ (8000eb4 <SystemInit+0x98>)
 8000e7c:	62d9      	str	r1, [r3, #44]	@ 0x2c
 8000e7e:	490e      	ldr	r1, [pc, #56]	@ (8000eb8 <SystemInit+0x9c>)
 8000e80:	6319      	str	r1, [r3, #48]	@ 0x30
 8000e82:	635a      	str	r2, [r3, #52]	@ 0x34
 8000e84:	6399      	str	r1, [r3, #56]	@ 0x38
 8000e86:	63da      	str	r2, [r3, #60]	@ 0x3c
 8000e88:	6419      	str	r1, [r3, #64]	@ 0x40
 8000e8a:	645a      	str	r2, [r3, #68]	@ 0x44
 8000e8c:	6819      	ldr	r1, [r3, #0]
 8000e8e:	f421 2180 	bic.w	r1, r1, #262144	@ 0x40000
 8000e92:	6019      	str	r1, [r3, #0]
 8000e94:	661a      	str	r2, [r3, #96]	@ 0x60
 8000e96:	f243 02d2 	movw	r2, #12498	@ 0x30d2
 8000e9a:	4b08      	ldr	r3, [pc, #32]	@ (8000ebc <SystemInit+0xa0>)
 8000e9c:	601a      	str	r2, [r3, #0]
 8000e9e:	4770      	bx	lr
 8000ea0:	e000ed00 	.word	0xe000ed00
 8000ea4:	52002000 	.word	0x52002000
 8000ea8:	58024400 	.word	0x58024400
 8000eac:	eaf6ed7f 	.word	0xeaf6ed7f
 8000eb0:	02020200 	.word	0x02020200
 8000eb4:	01ff0000 	.word	0x01ff0000
 8000eb8:	01010280 	.word	0x01010280
 8000ebc:	52004000 	.word	0x52004000

08000ec0 <ExitRun0Mode>:
 8000ec0:	4b04      	ldr	r3, [pc, #16]	@ (8000ed4 <ExitRun0Mode+0x14>)
 8000ec2:	68da      	ldr	r2, [r3, #12]
 8000ec4:	f022 0202 	bic.w	r2, r2, #2
 8000ec8:	60da      	str	r2, [r3, #12]
 8000eca:	685a      	ldr	r2, [r3, #4]
 8000ecc:	0492      	lsls	r2, r2, #18
 8000ece:	d5fc      	bpl.n	8000eca <ExitRun0Mode+0xa>
 8000ed0:	4770      	bx	lr
 8000ed2:	bf00      	nop
 8000ed4:	58024800 	.word	0x58024800

08000ed8 <Reset_Handler>:
 8000ed8:	f8df d038 	ldr.w	sp, [pc, #56]	@ 8000f14 <LoopFillZerobss+0xe>
 8000edc:	f7ff fff0 	bl	8000ec0 <ExitRun0Mode>
 8000ee0:	f7ff ff9c 	bl	8000e1c <SystemInit>
 8000ee4:	480c      	ldr	r0, [pc, #48]	@ (8000f18 <LoopFillZerobss+0x12>)
 8000ee6:	490d      	ldr	r1, [pc, #52]	@ (8000f1c <LoopFillZerobss+0x16>)
 8000ee8:	4a0d      	ldr	r2, [pc, #52]	@ (8000f20 <LoopFillZerobss+0x1a>)
 8000eea:	2300      	movs	r3, #0
 8000eec:	e002      	b.n	8000ef4 <LoopCopyDataInit>

08000eee <CopyDataInit>:
 8000eee:	58d4      	ldr	r4, [r2, r3]
 8000ef0:	50c4      	str	r4, [r0, r3]
 8000ef2:	3304      	adds	r3, #4

08000ef4 <LoopCopyDataInit>:
 8000ef4:	18c4      	adds	r4, r0, r3
 8000ef6:	428c      	cmp	r4, r1
 8000ef8:	d3f9      	bcc.n	8000eee <CopyDataInit>
 8000efa:	4a0a      	ldr	r2, [pc, #40]	@ (8000f24 <LoopFillZerobss+0x1e>)
 8000efc:	4c0a      	ldr	r4, [pc, #40]	@ (8000f28 <LoopFillZerobss+0x22>)
 8000efe:	2300      	movs	r3, #0
 8000f00:	e001      	b.n	8000f06 <LoopFillZerobss>

08000f02 <FillZerobss>:
 8000f02:	6013      	str	r3, [r2, #0]
 8000f04:	3204      	adds	r2, #4

08000f06 <LoopFillZerobss>:
 8000f06:	42a2      	cmp	r2, r4
 8000f08:	d3fb      	bcc.n	8000f02 <FillZerobss>
 8000f0a:	f002 fd0f 	bl	800392c <__libc_init_array>
 8000f0e:	f7ff fc67 	bl	80007e0 <main>
 8000f12:	4770      	bx	lr
 8000f14:	24100000 	.word	0x24100000
 8000f18:	24000000 	.word	0x24000000
 8000f1c:	24000014 	.word	0x24000014
 8000f20:	0800474c 	.word	0x0800474c
 8000f24:	24000014 	.word	0x24000014
 8000f28:	2400053c 	.word	0x2400053c

08000f2c <ADC_IRQHandler>:
 8000f2c:	e7fe      	b.n	8000f2c <ADC_IRQHandler>
	...

08000f30 <BSP_LED_Init>:
 8000f30:	2802      	cmp	r0, #2
 8000f32:	b570      	push	{r4, r5, r6, lr}
 8000f34:	b088      	sub	sp, #32
 8000f36:	d83e      	bhi.n	8000fb6 <BSP_LED_Init+0x86>
 8000f38:	4b20      	ldr	r3, [pc, #128]	@ (8000fbc <BSP_LED_Init+0x8c>)
 8000f3a:	f8d3 2140 	ldr.w	r2, [r3, #320]	@ 0x140
 8000f3e:	bb10      	cbnz	r0, 8000f86 <BSP_LED_Init+0x56>
 8000f40:	f042 0202 	orr.w	r2, r2, #2
 8000f44:	f8c3 2140 	str.w	r2, [r3, #320]	@ 0x140
 8000f48:	f8d3 3140 	ldr.w	r3, [r3, #320]	@ 0x140
 8000f4c:	f003 0302 	and.w	r3, r3, #2
 8000f50:	9300      	str	r3, [sp, #0]
 8000f52:	9b00      	ldr	r3, [sp, #0]
 8000f54:	4b1a      	ldr	r3, [pc, #104]	@ (8000fc0 <BSP_LED_Init+0x90>)
 8000f56:	2400      	movs	r4, #0
 8000f58:	a903      	add	r1, sp, #12
 8000f5a:	f833 6010 	ldrh.w	r6, [r3, r0, lsl #1]
 8000f5e:	2301      	movs	r3, #1
 8000f60:	e9cd 3404 	strd	r3, r4, [sp, #16]
 8000f64:	2303      	movs	r3, #3
 8000f66:	9603      	str	r6, [sp, #12]
 8000f68:	9306      	str	r3, [sp, #24]
 8000f6a:	4b16      	ldr	r3, [pc, #88]	@ (8000fc4 <BSP_LED_Init+0x94>)
 8000f6c:	f853 5020 	ldr.w	r5, [r3, r0, lsl #2]
 8000f70:	4628      	mov	r0, r5
 8000f72:	f000 fa33 	bl	80013dc <HAL_GPIO_Init>
 8000f76:	4628      	mov	r0, r5
 8000f78:	4622      	mov	r2, r4
 8000f7a:	4631      	mov	r1, r6
 8000f7c:	f000 fb1c 	bl	80015b8 <HAL_GPIO_WritePin>
 8000f80:	4620      	mov	r0, r4
 8000f82:	b008      	add	sp, #32
 8000f84:	bd70      	pop	{r4, r5, r6, pc}
 8000f86:	2801      	cmp	r0, #1
 8000f88:	d10a      	bne.n	8000fa0 <BSP_LED_Init+0x70>
 8000f8a:	f042 0210 	orr.w	r2, r2, #16
 8000f8e:	f8c3 2140 	str.w	r2, [r3, #320]	@ 0x140
 8000f92:	f8d3 3140 	ldr.w	r3, [r3, #320]	@ 0x140
 8000f96:	f003 0310 	and.w	r3, r3, #16
 8000f9a:	9301      	str	r3, [sp, #4]
 8000f9c:	9b01      	ldr	r3, [sp, #4]
 8000f9e:	e7d9      	b.n	8000f54 <BSP_LED_Init+0x24>
 8000fa0:	f042 0202 	orr.w	r2, r2, #2
 8000fa4:	f8c3 2140 	str.w	r2, [r3, #320]	@ 0x140
 8000fa8:	f8d3 3140 	ldr.w	r3, [r3, #320]	@ 0x140
 8000fac:	f003 0302 	and.w	r3, r3, #2
 8000fb0:	9302      	str	r3, [sp, #8]
 8000fb2:	9b02      	ldr	r3, [sp, #8]
 8000fb4:	e7ce      	b.n	8000f54 <BSP_LED_Init+0x24>
 8000fb6:	f06f 0001 	mvn.w	r0, #1
 8000fba:	e7e2      	b.n	8000f82 <BSP_LED_Init+0x52>
 8000fbc:	58024400 	.word	0x58024400
 8000fc0:	08004710 	.word	0x08004710
 8000fc4:	08004718 	.word	0x08004718

08000fc8 <BSP_PB_Init>:
 8000fc8:	4b1d      	ldr	r3, [pc, #116]	@ (8001040 <BSP_PB_Init+0x78>)
 8000fca:	f8d3 2140 	ldr.w	r2, [r3, #320]	@ 0x140
 8000fce:	f042 0204 	orr.w	r2, r2, #4
 8000fd2:	b530      	push	{r4, r5, lr}
 8000fd4:	f8c3 2140 	str.w	r2, [r3, #320]	@ 0x140
 8000fd8:	b087      	sub	sp, #28
 8000fda:	f8d3 3140 	ldr.w	r3, [r3, #320]	@ 0x140
 8000fde:	4605      	mov	r5, r0
 8000fe0:	f003 0304 	and.w	r3, r3, #4
 8000fe4:	9300      	str	r3, [sp, #0]
 8000fe6:	9b00      	ldr	r3, [sp, #0]
 8000fe8:	f44f 5300 	mov.w	r3, #8192	@ 0x2000
 8000fec:	9301      	str	r3, [sp, #4]
 8000fee:	2302      	movs	r3, #2
 8000ff0:	e9cd 3303 	strd	r3, r3, [sp, #12]
 8000ff4:	b939      	cbnz	r1, 8001006 <BSP_PB_Init+0x3e>
 8000ff6:	9102      	str	r1, [sp, #8]
 8000ff8:	a901      	add	r1, sp, #4
 8000ffa:	4812      	ldr	r0, [pc, #72]	@ (8001044 <BSP_PB_Init+0x7c>)
 8000ffc:	f000 f9ee 	bl	80013dc <HAL_GPIO_Init>
 8001000:	2000      	movs	r0, #0
 8001002:	b007      	add	sp, #28
 8001004:	bd30      	pop	{r4, r5, pc}
 8001006:	4c10      	ldr	r4, [pc, #64]	@ (8001048 <BSP_PB_Init+0x80>)
 8001008:	f44f 1388 	mov.w	r3, #1114112	@ 0x110000
 800100c:	a901      	add	r1, sp, #4
 800100e:	480d      	ldr	r0, [pc, #52]	@ (8001044 <BSP_PB_Init+0x7c>)
 8001010:	eb04 04c5 	add.w	r4, r4, r5, lsl #3
 8001014:	9302      	str	r3, [sp, #8]
 8001016:	f000 f9e1 	bl	80013dc <HAL_GPIO_Init>
 800101a:	490c      	ldr	r1, [pc, #48]	@ (800104c <BSP_PB_Init+0x84>)
 800101c:	4620      	mov	r0, r4
 800101e:	f000 f9c2 	bl	80013a6 <HAL_EXTI_GetHandle>
 8001022:	4a0b      	ldr	r2, [pc, #44]	@ (8001050 <BSP_PB_Init+0x88>)
 8001024:	2100      	movs	r1, #0
 8001026:	4620      	mov	r0, r4
 8001028:	f000 f9b6 	bl	8001398 <HAL_EXTI_RegisterCallback>
 800102c:	2200      	movs	r2, #0
 800102e:	210f      	movs	r1, #15
 8001030:	2028      	movs	r0, #40	@ 0x28
 8001032:	f000 f913 	bl	800125c <HAL_NVIC_SetPriority>
 8001036:	2028      	movs	r0, #40	@ 0x28
 8001038:	f000 f942 	bl	80012c0 <HAL_NVIC_EnableIRQ>
 800103c:	e7e0      	b.n	8001000 <BSP_PB_Init+0x38>
 800103e:	bf00      	nop
 8001040:	58024400 	.word	0x58024400
 8001044:	58020800 	.word	0x58020800
 8001048:	24000530 	.word	0x24000530
 800104c:	1630000d 	.word	0x1630000d
 8001050:	08001067 	.word	0x08001067

08001054 <BSP_PB_IRQHandler>:
 8001054:	4b02      	ldr	r3, [pc, #8]	@ (8001060 <BSP_PB_IRQHandler+0xc>)
 8001056:	eb03 00c0 	add.w	r0, r3, r0, lsl #3
 800105a:	f000 b9aa 	b.w	80013b2 <HAL_EXTI_IRQHandler>
 800105e:	bf00      	nop
 8001060:	24000530 	.word	0x24000530

08001064 <BSP_PB_Callback>:
 8001064:	4770      	bx	lr

08001066 <BUTTON_USER_EXTI_Callback>:
 8001066:	2000      	movs	r0, #0
 8001068:	b508      	push	{r3, lr}
 800106a:	f7ff fffb 	bl	8001064 <BSP_PB_Callback>
 800106e:	bd08      	pop	{r3, pc}

08001070 <MX_USART3_Init>:
 8001070:	4a09      	ldr	r2, [pc, #36]	@ (8001098 <MX_USART3_Init+0x28>)
 8001072:	6812      	ldr	r2, [r2, #0]
 8001074:	6002      	str	r2, [r0, #0]
 8001076:	680a      	ldr	r2, [r1, #0]
 8001078:	6042      	str	r2, [r0, #4]
 800107a:	220c      	movs	r2, #12
 800107c:	6142      	str	r2, [r0, #20]
 800107e:	894a      	ldrh	r2, [r1, #10]
 8001080:	6102      	str	r2, [r0, #16]
 8001082:	684a      	ldr	r2, [r1, #4]
 8001084:	6082      	str	r2, [r0, #8]
 8001086:	890a      	ldrh	r2, [r1, #8]
 8001088:	60c2      	str	r2, [r0, #12]
 800108a:	898a      	ldrh	r2, [r1, #12]
 800108c:	6182      	str	r2, [r0, #24]
 800108e:	f44f 4200 	mov.w	r2, #32768	@ 0x8000
 8001092:	61c2      	str	r2, [r0, #28]
 8001094:	f002 bc12 	b.w	80038bc <HAL_UART_Init>
 8001098:	24000008 	.word	0x24000008

0800109c <BSP_COM_Init>:
 800109c:	b570      	push	{r4, r5, r6, lr}
 800109e:	460c      	mov	r4, r1
 80010a0:	b088      	sub	sp, #32
 80010a2:	2800      	cmp	r0, #0
 80010a4:	d146      	bne.n	8001134 <BSP_COM_Init+0x98>
 80010a6:	4b25      	ldr	r3, [pc, #148]	@ (800113c <BSP_COM_Init+0xa0>)
 80010a8:	2502      	movs	r5, #2
 80010aa:	2607      	movs	r6, #7
 80010ac:	a903      	add	r1, sp, #12
 80010ae:	f8d3 2140 	ldr.w	r2, [r3, #320]	@ 0x140
 80010b2:	4823      	ldr	r0, [pc, #140]	@ (8001140 <BSP_COM_Init+0xa4>)
 80010b4:	f042 0208 	orr.w	r2, r2, #8
 80010b8:	f8c3 2140 	str.w	r2, [r3, #320]	@ 0x140
 80010bc:	f8d3 2140 	ldr.w	r2, [r3, #320]	@ 0x140
 80010c0:	f002 0208 	and.w	r2, r2, #8
 80010c4:	9200      	str	r2, [sp, #0]
 80010c6:	9a00      	ldr	r2, [sp, #0]
 80010c8:	f8d3 2140 	ldr.w	r2, [r3, #320]	@ 0x140
 80010cc:	f042 0208 	orr.w	r2, r2, #8
 80010d0:	f8c3 2140 	str.w	r2, [r3, #320]	@ 0x140
 80010d4:	f8d3 2140 	ldr.w	r2, [r3, #320]	@ 0x140
 80010d8:	f002 0208 	and.w	r2, r2, #8
 80010dc:	9201      	str	r2, [sp, #4]
 80010de:	9a01      	ldr	r2, [sp, #4]
 80010e0:	f8d3 2148 	ldr.w	r2, [r3, #328]	@ 0x148
 80010e4:	f442 2280 	orr.w	r2, r2, #262144	@ 0x40000
 80010e8:	f8c3 2148 	str.w	r2, [r3, #328]	@ 0x148
 80010ec:	f8d3 3148 	ldr.w	r3, [r3, #328]	@ 0x148
 80010f0:	9506      	str	r5, [sp, #24]
 80010f2:	f403 2380 	and.w	r3, r3, #262144	@ 0x40000
 80010f6:	9607      	str	r6, [sp, #28]
 80010f8:	9302      	str	r3, [sp, #8]
 80010fa:	9b02      	ldr	r3, [sp, #8]
 80010fc:	f44f 7380 	mov.w	r3, #256	@ 0x100
 8001100:	e9cd 3503 	strd	r3, r5, [sp, #12]
 8001104:	2301      	movs	r3, #1
 8001106:	9305      	str	r3, [sp, #20]
 8001108:	f000 f968 	bl	80013dc <HAL_GPIO_Init>
 800110c:	f44f 7300 	mov.w	r3, #512	@ 0x200
 8001110:	a903      	add	r1, sp, #12
 8001112:	480b      	ldr	r0, [pc, #44]	@ (8001140 <BSP_COM_Init+0xa4>)
 8001114:	9607      	str	r6, [sp, #28]
 8001116:	e9cd 3503 	strd	r3, r5, [sp, #12]
 800111a:	f000 f95f 	bl	80013dc <HAL_GPIO_Init>
 800111e:	4621      	mov	r1, r4
 8001120:	4808      	ldr	r0, [pc, #32]	@ (8001144 <BSP_COM_Init+0xa8>)
 8001122:	f7ff ffa5 	bl	8001070 <MX_USART3_Init>
 8001126:	2800      	cmp	r0, #0
 8001128:	bf14      	ite	ne
 800112a:	f06f 0003 	mvnne.w	r0, #3
 800112e:	2000      	moveq	r0, #0
 8001130:	b008      	add	sp, #32
 8001132:	bd70      	pop	{r4, r5, r6, pc}
 8001134:	f06f 0001 	mvn.w	r0, #1
 8001138:	e7fa      	b.n	8001130 <BSP_COM_Init+0x94>
 800113a:	bf00      	nop
 800113c:	58024400 	.word	0x58024400
 8001140:	58020c00 	.word	0x58020c00
 8001144:	2400049c 	.word	0x2400049c

08001148 <HAL_InitTick>:
 8001148:	b538      	push	{r3, r4, r5, lr}
 800114a:	4b0f      	ldr	r3, [pc, #60]	@ (8001188 <HAL_InitTick+0x40>)
 800114c:	4605      	mov	r5, r0
 800114e:	781a      	ldrb	r2, [r3, #0]
 8001150:	b90a      	cbnz	r2, 8001156 <HAL_InitTick+0xe>
 8001152:	2001      	movs	r0, #1
 8001154:	bd38      	pop	{r3, r4, r5, pc}
 8001156:	f44f 737a 	mov.w	r3, #1000	@ 0x3e8
 800115a:	fbb3 f3f2 	udiv	r3, r3, r2
 800115e:	4a0b      	ldr	r2, [pc, #44]	@ (800118c <HAL_InitTick+0x44>)
 8001160:	6810      	ldr	r0, [r2, #0]
 8001162:	fbb0 f0f3 	udiv	r0, r0, r3
 8001166:	f000 f8b9 	bl	80012dc <HAL_SYSTICK_Config>
 800116a:	4604      	mov	r4, r0
 800116c:	2800      	cmp	r0, #0
 800116e:	d1f0      	bne.n	8001152 <HAL_InitTick+0xa>
 8001170:	2d0f      	cmp	r5, #15
 8001172:	d8ee      	bhi.n	8001152 <HAL_InitTick+0xa>
 8001174:	4602      	mov	r2, r0
 8001176:	4629      	mov	r1, r5
 8001178:	f04f 30ff 	mov.w	r0, #4294967295
 800117c:	f000 f86e 	bl	800125c <HAL_NVIC_SetPriority>
 8001180:	4b03      	ldr	r3, [pc, #12]	@ (8001190 <HAL_InitTick+0x48>)
 8001182:	4620      	mov	r0, r4
 8001184:	601d      	str	r5, [r3, #0]
 8001186:	e7e5      	b.n	8001154 <HAL_InitTick+0xc>
 8001188:	2400000c 	.word	0x2400000c
 800118c:	24000004 	.word	0x24000004
 8001190:	24000010 	.word	0x24000010

08001194 <HAL_Init>:
 8001194:	b510      	push	{r4, lr}
 8001196:	2003      	movs	r0, #3
 8001198:	f000 f84e 	bl	8001238 <HAL_NVIC_SetPriorityGrouping>
 800119c:	f000 ffa4 	bl	80020e8 <HAL_RCC_GetSysClockFreq>
 80011a0:	490f      	ldr	r1, [pc, #60]	@ (80011e0 <HAL_Init+0x4c>)
 80011a2:	4a10      	ldr	r2, [pc, #64]	@ (80011e4 <HAL_Init+0x50>)
 80011a4:	698b      	ldr	r3, [r1, #24]
 80011a6:	f3c3 2303 	ubfx	r3, r3, #8, #4
 80011aa:	5cd3      	ldrb	r3, [r2, r3]
 80011ac:	f003 031f 	and.w	r3, r3, #31
 80011b0:	40d8      	lsrs	r0, r3
 80011b2:	698b      	ldr	r3, [r1, #24]
 80011b4:	f003 030f 	and.w	r3, r3, #15
 80011b8:	5cd3      	ldrb	r3, [r2, r3]
 80011ba:	4a0b      	ldr	r2, [pc, #44]	@ (80011e8 <HAL_Init+0x54>)
 80011bc:	f003 031f 	and.w	r3, r3, #31
 80011c0:	fa20 f303 	lsr.w	r3, r0, r3
 80011c4:	6013      	str	r3, [r2, #0]
 80011c6:	4b09      	ldr	r3, [pc, #36]	@ (80011ec <HAL_Init+0x58>)
 80011c8:	6018      	str	r0, [r3, #0]
 80011ca:	2000      	movs	r0, #0
 80011cc:	f7ff ffbc 	bl	8001148 <HAL_InitTick>
 80011d0:	4604      	mov	r4, r0
 80011d2:	b918      	cbnz	r0, 80011dc <HAL_Init+0x48>
 80011d4:	f7ff fdb8 	bl	8000d48 <HAL_MspInit>
 80011d8:	4620      	mov	r0, r4
 80011da:	bd10      	pop	{r4, pc}
 80011dc:	2401      	movs	r4, #1
 80011de:	e7fb      	b.n	80011d8 <HAL_Init+0x44>
 80011e0:	58024400 	.word	0x58024400
 80011e4:	08004700 	.word	0x08004700
 80011e8:	24000000 	.word	0x24000000
 80011ec:	24000004 	.word	0x24000004

080011f0 <HAL_IncTick>:
 80011f0:	4a03      	ldr	r2, [pc, #12]	@ (8001200 <HAL_IncTick+0x10>)
 80011f2:	4b04      	ldr	r3, [pc, #16]	@ (8001204 <HAL_IncTick+0x14>)
 80011f4:	6811      	ldr	r1, [r2, #0]
 80011f6:	781b      	ldrb	r3, [r3, #0]
 80011f8:	440b      	add	r3, r1
 80011fa:	6013      	str	r3, [r2, #0]
 80011fc:	4770      	bx	lr
 80011fe:	bf00      	nop
 8001200:	24000538 	.word	0x24000538
 8001204:	2400000c 	.word	0x2400000c

08001208 <HAL_GetTick>:
 8001208:	4b01      	ldr	r3, [pc, #4]	@ (8001210 <HAL_GetTick+0x8>)
 800120a:	6818      	ldr	r0, [r3, #0]
 800120c:	4770      	bx	lr
 800120e:	bf00      	nop
 8001210:	24000538 	.word	0x24000538

08001214 <HAL_Delay>:
 8001214:	b538      	push	{r3, r4, r5, lr}
 8001216:	4604      	mov	r4, r0
 8001218:	f7ff fff6 	bl	8001208 <HAL_GetTick>
 800121c:	4605      	mov	r5, r0
 800121e:	1c63      	adds	r3, r4, #1
 8001220:	bf1e      	ittt	ne
 8001222:	4b04      	ldrne	r3, [pc, #16]	@ (8001234 <HAL_Delay+0x20>)
 8001224:	781b      	ldrbne	r3, [r3, #0]
 8001226:	18e4      	addne	r4, r4, r3
 8001228:	f7ff ffee 	bl	8001208 <HAL_GetTick>
 800122c:	1b43      	subs	r3, r0, r5
 800122e:	42a3      	cmp	r3, r4
 8001230:	d3fa      	bcc.n	8001228 <HAL_Delay+0x14>
 8001232:	bd38      	pop	{r3, r4, r5, pc}
 8001234:	2400000c 	.word	0x2400000c

08001238 <HAL_NVIC_SetPriorityGrouping>:
 8001238:	4907      	ldr	r1, [pc, #28]	@ (8001258 <HAL_NVIC_SetPriorityGrouping+0x20>)
 800123a:	0203      	lsls	r3, r0, #8
 800123c:	68ca      	ldr	r2, [r1, #12]
 800123e:	f403 63e0 	and.w	r3, r3, #1792	@ 0x700
 8001242:	f422 62e0 	bic.w	r2, r2, #1792	@ 0x700
 8001246:	0412      	lsls	r2, r2, #16
 8001248:	0c12      	lsrs	r2, r2, #16
 800124a:	4313      	orrs	r3, r2
 800124c:	f043 63bf 	orr.w	r3, r3, #100139008	@ 0x5f80000
 8001250:	f443 3300 	orr.w	r3, r3, #131072	@ 0x20000
 8001254:	60cb      	str	r3, [r1, #12]
 8001256:	4770      	bx	lr
 8001258:	e000ed00 	.word	0xe000ed00

0800125c <HAL_NVIC_SetPriority>:
 800125c:	4b16      	ldr	r3, [pc, #88]	@ (80012b8 <HAL_NVIC_SetPriority+0x5c>)
 800125e:	b530      	push	{r4, r5, lr}
 8001260:	68dc      	ldr	r4, [r3, #12]
 8001262:	f3c4 2402 	ubfx	r4, r4, #8, #3
 8001266:	f1c4 0307 	rsb	r3, r4, #7
 800126a:	1d25      	adds	r5, r4, #4
 800126c:	2b04      	cmp	r3, #4
 800126e:	bf28      	it	cs
 8001270:	2304      	movcs	r3, #4
 8001272:	2d06      	cmp	r5, #6
 8001274:	f04f 35ff 	mov.w	r5, #4294967295
 8001278:	bf8c      	ite	hi
 800127a:	3c03      	subhi	r4, #3
 800127c:	2400      	movls	r4, #0
 800127e:	fa05 f303 	lsl.w	r3, r5, r3
 8001282:	2800      	cmp	r0, #0
 8001284:	fa05 f504 	lsl.w	r5, r5, r4
 8001288:	ea21 0303 	bic.w	r3, r1, r3
 800128c:	ea22 0205 	bic.w	r2, r2, r5
 8001290:	fa03 f304 	lsl.w	r3, r3, r4
 8001294:	ea43 0302 	orr.w	r3, r3, r2
 8001298:	ea4f 1303 	mov.w	r3, r3, lsl #4
 800129c:	b2db      	uxtb	r3, r3
 800129e:	db06      	blt.n	80012ae <HAL_NVIC_SetPriority+0x52>
 80012a0:	f100 4060 	add.w	r0, r0, #3758096384	@ 0xe0000000
 80012a4:	f500 4061 	add.w	r0, r0, #57600	@ 0xe100
 80012a8:	f880 3300 	strb.w	r3, [r0, #768]	@ 0x300
 80012ac:	bd30      	pop	{r4, r5, pc}
 80012ae:	f000 000f 	and.w	r0, r0, #15
 80012b2:	4a02      	ldr	r2, [pc, #8]	@ (80012bc <HAL_NVIC_SetPriority+0x60>)
 80012b4:	5413      	strb	r3, [r2, r0]
 80012b6:	e7f9      	b.n	80012ac <HAL_NVIC_SetPriority+0x50>
 80012b8:	e000ed00 	.word	0xe000ed00
 80012bc:	e000ed14 	.word	0xe000ed14

080012c0 <HAL_NVIC_EnableIRQ>:
 80012c0:	2800      	cmp	r0, #0
 80012c2:	db07      	blt.n	80012d4 <HAL_NVIC_EnableIRQ+0x14>
 80012c4:	2301      	movs	r3, #1
 80012c6:	0941      	lsrs	r1, r0, #5
 80012c8:	f000 001f 	and.w	r0, r0, #31
 80012cc:	4a02      	ldr	r2, [pc, #8]	@ (80012d8 <HAL_NVIC_EnableIRQ+0x18>)
 80012ce:	4083      	lsls	r3, r0
 80012d0:	f842 3021 	str.w	r3, [r2, r1, lsl #2]
 80012d4:	4770      	bx	lr
 80012d6:	bf00      	nop
 80012d8:	e000e100 	.word	0xe000e100

080012dc <HAL_SYSTICK_Config>:
 80012dc:	3801      	subs	r0, #1
 80012de:	f1b0 7f80 	cmp.w	r0, #16777216	@ 0x1000000
 80012e2:	d20b      	bcs.n	80012fc <HAL_SYSTICK_Config+0x20>
 80012e4:	f04f 23e0 	mov.w	r3, #3758153728	@ 0xe000e000
 80012e8:	4a05      	ldr	r2, [pc, #20]	@ (8001300 <HAL_SYSTICK_Config+0x24>)
 80012ea:	21f0      	movs	r1, #240	@ 0xf0
 80012ec:	6158      	str	r0, [r3, #20]
 80012ee:	2000      	movs	r0, #0
 80012f0:	f882 1023 	strb.w	r1, [r2, #35]	@ 0x23
 80012f4:	2207      	movs	r2, #7
 80012f6:	6198      	str	r0, [r3, #24]
 80012f8:	611a      	str	r2, [r3, #16]
 80012fa:	4770      	bx	lr
 80012fc:	2001      	movs	r0, #1
 80012fe:	4770      	bx	lr
 8001300:	e000ed00 	.word	0xe000ed00

08001304 <HAL_MPU_Disable>:
 8001304:	f3bf 8f5f 	dmb	sy
 8001308:	4b04      	ldr	r3, [pc, #16]	@ (800131c <HAL_MPU_Disable+0x18>)
 800130a:	6a5a      	ldr	r2, [r3, #36]	@ 0x24
 800130c:	f422 3280 	bic.w	r2, r2, #65536	@ 0x10000
 8001310:	625a      	str	r2, [r3, #36]	@ 0x24
 8001312:	2200      	movs	r2, #0
 8001314:	f8c3 2094 	str.w	r2, [r3, #148]	@ 0x94
 8001318:	4770      	bx	lr
 800131a:	bf00      	nop
 800131c:	e000ed00 	.word	0xe000ed00

08001320 <HAL_MPU_Enable>:
 8001320:	4b06      	ldr	r3, [pc, #24]	@ (800133c <HAL_MPU_Enable+0x1c>)
 8001322:	f040 0001 	orr.w	r0, r0, #1
 8001326:	f8c3 0094 	str.w	r0, [r3, #148]	@ 0x94
 800132a:	6a5a      	ldr	r2, [r3, #36]	@ 0x24
 800132c:	f442 3280 	orr.w	r2, r2, #65536	@ 0x10000
 8001330:	625a      	str	r2, [r3, #36]	@ 0x24
 8001332:	f3bf 8f4f 	dsb	sy
 8001336:	f3bf 8f6f 	isb	sy
 800133a:	4770      	bx	lr
 800133c:	e000ed00 	.word	0xe000ed00

08001340 <HAL_MPU_ConfigRegion>:
 8001340:	7843      	ldrb	r3, [r0, #1]
 8001342:	4a14      	ldr	r2, [pc, #80]	@ (8001394 <HAL_MPU_ConfigRegion+0x54>)
 8001344:	f8c2 3098 	str.w	r3, [r2, #152]	@ 0x98
 8001348:	f8d2 30a0 	ldr.w	r3, [r2, #160]	@ 0xa0
 800134c:	f023 0301 	bic.w	r3, r3, #1
 8001350:	f8c2 30a0 	str.w	r3, [r2, #160]	@ 0xa0
 8001354:	6843      	ldr	r3, [r0, #4]
 8001356:	f8c2 309c 	str.w	r3, [r2, #156]	@ 0x9c
 800135a:	7ac3      	ldrb	r3, [r0, #11]
 800135c:	7b01      	ldrb	r1, [r0, #12]
 800135e:	061b      	lsls	r3, r3, #24
 8001360:	ea43 7301 	orr.w	r3, r3, r1, lsl #28
 8001364:	7801      	ldrb	r1, [r0, #0]
 8001366:	430b      	orrs	r3, r1
 8001368:	7a81      	ldrb	r1, [r0, #10]
 800136a:	ea43 43c1 	orr.w	r3, r3, r1, lsl #19
 800136e:	7b41      	ldrb	r1, [r0, #13]
 8001370:	ea43 4381 	orr.w	r3, r3, r1, lsl #18
 8001374:	7b81      	ldrb	r1, [r0, #14]
 8001376:	ea43 4341 	orr.w	r3, r3, r1, lsl #17
 800137a:	7bc1      	ldrb	r1, [r0, #15]
 800137c:	ea43 4301 	orr.w	r3, r3, r1, lsl #16
 8001380:	7a41      	ldrb	r1, [r0, #9]
 8001382:	ea43 2301 	orr.w	r3, r3, r1, lsl #8
 8001386:	7a01      	ldrb	r1, [r0, #8]
 8001388:	ea43 0341 	orr.w	r3, r3, r1, lsl #1
 800138c:	f8c2 30a0 	str.w	r3, [r2, #160]	@ 0xa0
 8001390:	4770      	bx	lr
 8001392:	bf00      	nop
 8001394:	e000ed00 	.word	0xe000ed00

08001398 <HAL_EXTI_RegisterCallback>:
 8001398:	b118      	cbz	r0, 80013a2 <HAL_EXTI_RegisterCallback+0xa>
 800139a:	b911      	cbnz	r1, 80013a2 <HAL_EXTI_RegisterCallback+0xa>
 800139c:	6042      	str	r2, [r0, #4]
 800139e:	4608      	mov	r0, r1
 80013a0:	4770      	bx	lr
 80013a2:	2101      	movs	r1, #1
 80013a4:	e7fb      	b.n	800139e <HAL_EXTI_RegisterCallback+0x6>

080013a6 <HAL_EXTI_GetHandle>:
 80013a6:	b110      	cbz	r0, 80013ae <HAL_EXTI_GetHandle+0x8>
 80013a8:	6001      	str	r1, [r0, #0]
 80013aa:	2000      	movs	r0, #0
 80013ac:	4770      	bx	lr
 80013ae:	2001      	movs	r0, #1
 80013b0:	4770      	bx	lr

080013b2 <HAL_EXTI_IRQHandler>:
 80013b2:	6803      	ldr	r3, [r0, #0]
 80013b4:	2201      	movs	r2, #1
 80013b6:	f003 011f 	and.w	r1, r3, #31
 80013ba:	f3c3 4301 	ubfx	r3, r3, #16, #2
 80013be:	011b      	lsls	r3, r3, #4
 80013c0:	408a      	lsls	r2, r1
 80013c2:	f103 43b0 	add.w	r3, r3, #1476395008	@ 0x58000000
 80013c6:	f8d3 1088 	ldr.w	r1, [r3, #136]	@ 0x88
 80013ca:	4211      	tst	r1, r2
 80013cc:	d004      	beq.n	80013d8 <HAL_EXTI_IRQHandler+0x26>
 80013ce:	f8c3 2088 	str.w	r2, [r3, #136]	@ 0x88
 80013d2:	6843      	ldr	r3, [r0, #4]
 80013d4:	b103      	cbz	r3, 80013d8 <HAL_EXTI_IRQHandler+0x26>
 80013d6:	4718      	bx	r3
 80013d8:	4770      	bx	lr
	...

080013dc <HAL_GPIO_Init>:
 80013dc:	e92d 4ff7 	stmdb	sp!, {r0, r1, r2, r4, r5, r6, r7, r8, r9, sl, fp, lr}
 80013e0:	2300      	movs	r3, #0
 80013e2:	f8df 91c4 	ldr.w	r9, [pc, #452]	@ 80015a8 <HAL_GPIO_Init+0x1cc>
 80013e6:	f04f 44b0 	mov.w	r4, #1476395008	@ 0x58000000
 80013ea:	680a      	ldr	r2, [r1, #0]
 80013ec:	fa32 f503 	lsrs.w	r5, r2, r3
 80013f0:	d102      	bne.n	80013f8 <HAL_GPIO_Init+0x1c>
 80013f2:	b003      	add	sp, #12
 80013f4:	e8bd 8ff0 	ldmia.w	sp!, {r4, r5, r6, r7, r8, r9, sl, fp, pc}
 80013f8:	2501      	movs	r5, #1
 80013fa:	fa05 f803 	lsl.w	r8, r5, r3
 80013fe:	ea18 0202 	ands.w	r2, r8, r2
 8001402:	f000 80bb 	beq.w	800157c <HAL_GPIO_Init+0x1a0>
 8001406:	684e      	ldr	r6, [r1, #4]
 8001408:	2703      	movs	r7, #3
 800140a:	ea4f 0e43 	mov.w	lr, r3, lsl #1
 800140e:	f006 0503 	and.w	r5, r6, #3
 8001412:	fa07 fc0e 	lsl.w	ip, r7, lr
 8001416:	1e6f      	subs	r7, r5, #1
 8001418:	ea6f 0c0c 	mvn.w	ip, ip
 800141c:	2f01      	cmp	r7, #1
 800141e:	d834      	bhi.n	800148a <HAL_GPIO_Init+0xae>
 8001420:	6887      	ldr	r7, [r0, #8]
 8001422:	ea07 0a0c 	and.w	sl, r7, ip
 8001426:	68cf      	ldr	r7, [r1, #12]
 8001428:	fa07 f70e 	lsl.w	r7, r7, lr
 800142c:	ea47 070a 	orr.w	r7, r7, sl
 8001430:	6087      	str	r7, [r0, #8]
 8001432:	6847      	ldr	r7, [r0, #4]
 8001434:	ea27 0808 	bic.w	r8, r7, r8
 8001438:	f3c6 1700 	ubfx	r7, r6, #4, #1
 800143c:	409f      	lsls	r7, r3
 800143e:	ea47 0708 	orr.w	r7, r7, r8
 8001442:	6047      	str	r7, [r0, #4]
 8001444:	68c7      	ldr	r7, [r0, #12]
 8001446:	2d02      	cmp	r5, #2
 8001448:	ea07 080c 	and.w	r8, r7, ip
 800144c:	688f      	ldr	r7, [r1, #8]
 800144e:	fa07 f70e 	lsl.w	r7, r7, lr
 8001452:	ea47 0708 	orr.w	r7, r7, r8
 8001456:	60c7      	str	r7, [r0, #12]
 8001458:	d119      	bne.n	800148e <HAL_GPIO_Init+0xb2>
 800145a:	ea4f 08d3 	mov.w	r8, r3, lsr #3
 800145e:	f003 0a07 	and.w	sl, r3, #7
 8001462:	f04f 0b0f 	mov.w	fp, #15
 8001466:	eb00 0888 	add.w	r8, r0, r8, lsl #2
 800146a:	ea4f 0a8a 	mov.w	sl, sl, lsl #2
 800146e:	f8d8 7020 	ldr.w	r7, [r8, #32]
 8001472:	fa0b fb0a 	lsl.w	fp, fp, sl
 8001476:	ea27 0b0b 	bic.w	fp, r7, fp
 800147a:	690f      	ldr	r7, [r1, #16]
 800147c:	fa07 f70a 	lsl.w	r7, r7, sl
 8001480:	ea47 070b 	orr.w	r7, r7, fp
 8001484:	f8c8 7020 	str.w	r7, [r8, #32]
 8001488:	e001      	b.n	800148e <HAL_GPIO_Init+0xb2>
 800148a:	2d03      	cmp	r5, #3
 800148c:	d1da      	bne.n	8001444 <HAL_GPIO_Init+0x68>
 800148e:	6807      	ldr	r7, [r0, #0]
 8001490:	fa05 f50e 	lsl.w	r5, r5, lr
 8001494:	f416 3f40 	tst.w	r6, #196608	@ 0x30000
 8001498:	ea07 070c 	and.w	r7, r7, ip
 800149c:	ea45 0507 	orr.w	r5, r5, r7
 80014a0:	6005      	str	r5, [r0, #0]
 80014a2:	d06b      	beq.n	800157c <HAL_GPIO_Init+0x1a0>
 80014a4:	f8d9 5154 	ldr.w	r5, [r9, #340]	@ 0x154
 80014a8:	f023 0703 	bic.w	r7, r3, #3
 80014ac:	f003 0c03 	and.w	ip, r3, #3
 80014b0:	f04f 0e0f 	mov.w	lr, #15
 80014b4:	f045 0502 	orr.w	r5, r5, #2
 80014b8:	f107 47b0 	add.w	r7, r7, #1476395008	@ 0x58000000
 80014bc:	ea4f 0c8c 	mov.w	ip, ip, lsl #2
 80014c0:	f8c9 5154 	str.w	r5, [r9, #340]	@ 0x154
 80014c4:	f507 6780 	add.w	r7, r7, #1024	@ 0x400
 80014c8:	f8d9 5154 	ldr.w	r5, [r9, #340]	@ 0x154
 80014cc:	fa0e fe0c 	lsl.w	lr, lr, ip
 80014d0:	f005 0502 	and.w	r5, r5, #2
 80014d4:	9501      	str	r5, [sp, #4]
 80014d6:	9d01      	ldr	r5, [sp, #4]
 80014d8:	68bd      	ldr	r5, [r7, #8]
 80014da:	ea25 0e0e 	bic.w	lr, r5, lr
 80014de:	4d31      	ldr	r5, [pc, #196]	@ (80015a4 <HAL_GPIO_Init+0x1c8>)
 80014e0:	42a8      	cmp	r0, r5
 80014e2:	d04d      	beq.n	8001580 <HAL_GPIO_Init+0x1a4>
 80014e4:	f505 6580 	add.w	r5, r5, #1024	@ 0x400
 80014e8:	42a8      	cmp	r0, r5
 80014ea:	d04b      	beq.n	8001584 <HAL_GPIO_Init+0x1a8>
 80014ec:	f505 6580 	add.w	r5, r5, #1024	@ 0x400
 80014f0:	42a8      	cmp	r0, r5
 80014f2:	d049      	beq.n	8001588 <HAL_GPIO_Init+0x1ac>
 80014f4:	f505 6580 	add.w	r5, r5, #1024	@ 0x400
 80014f8:	42a8      	cmp	r0, r5
 80014fa:	d047      	beq.n	800158c <HAL_GPIO_Init+0x1b0>
 80014fc:	f505 6580 	add.w	r5, r5, #1024	@ 0x400
 8001500:	42a8      	cmp	r0, r5
 8001502:	d045      	beq.n	8001590 <HAL_GPIO_Init+0x1b4>
 8001504:	f505 6580 	add.w	r5, r5, #1024	@ 0x400
 8001508:	42a8      	cmp	r0, r5
 800150a:	d043      	beq.n	8001594 <HAL_GPIO_Init+0x1b8>
 800150c:	f505 6580 	add.w	r5, r5, #1024	@ 0x400
 8001510:	42a8      	cmp	r0, r5
 8001512:	d041      	beq.n	8001598 <HAL_GPIO_Init+0x1bc>
 8001514:	f505 6580 	add.w	r5, r5, #1024	@ 0x400
 8001518:	42a8      	cmp	r0, r5
 800151a:	d03f      	beq.n	800159c <HAL_GPIO_Init+0x1c0>
 800151c:	f505 6580 	add.w	r5, r5, #1024	@ 0x400
 8001520:	42a8      	cmp	r0, r5
 8001522:	d03d      	beq.n	80015a0 <HAL_GPIO_Init+0x1c4>
 8001524:	f505 6580 	add.w	r5, r5, #1024	@ 0x400
 8001528:	42a8      	cmp	r0, r5
 800152a:	bf14      	ite	ne
 800152c:	250a      	movne	r5, #10
 800152e:	2509      	moveq	r5, #9
 8001530:	fa05 f50c 	lsl.w	r5, r5, ip
 8001534:	f416 1f80 	tst.w	r6, #1048576	@ 0x100000
 8001538:	ea45 050e 	orr.w	r5, r5, lr
 800153c:	60bd      	str	r5, [r7, #8]
 800153e:	ea6f 0702 	mvn.w	r7, r2
 8001542:	6825      	ldr	r5, [r4, #0]
 8001544:	bf0c      	ite	eq
 8001546:	403d      	andeq	r5, r7
 8001548:	4315      	orrne	r5, r2
 800154a:	f416 1f00 	tst.w	r6, #2097152	@ 0x200000
 800154e:	6025      	str	r5, [r4, #0]
 8001550:	6865      	ldr	r5, [r4, #4]
 8001552:	bf0c      	ite	eq
 8001554:	403d      	andeq	r5, r7
 8001556:	4315      	orrne	r5, r2
 8001558:	f416 3f00 	tst.w	r6, #131072	@ 0x20000
 800155c:	6065      	str	r5, [r4, #4]
 800155e:	f8d4 5084 	ldr.w	r5, [r4, #132]	@ 0x84
 8001562:	bf0c      	ite	eq
 8001564:	403d      	andeq	r5, r7
 8001566:	4315      	orrne	r5, r2
 8001568:	03f6      	lsls	r6, r6, #15
 800156a:	f8c4 5084 	str.w	r5, [r4, #132]	@ 0x84
 800156e:	f8d4 5080 	ldr.w	r5, [r4, #128]	@ 0x80
 8001572:	bf54      	ite	pl
 8001574:	403d      	andpl	r5, r7
 8001576:	4315      	orrmi	r5, r2
 8001578:	f8c4 5080 	str.w	r5, [r4, #128]	@ 0x80
 800157c:	3301      	adds	r3, #1
 800157e:	e734      	b.n	80013ea <HAL_GPIO_Init+0xe>
 8001580:	2500      	movs	r5, #0
 8001582:	e7d5      	b.n	8001530 <HAL_GPIO_Init+0x154>
 8001584:	2501      	movs	r5, #1
 8001586:	e7d3      	b.n	8001530 <HAL_GPIO_Init+0x154>
 8001588:	2502      	movs	r5, #2
 800158a:	e7d1      	b.n	8001530 <HAL_GPIO_Init+0x154>
 800158c:	2503      	movs	r5, #3
 800158e:	e7cf      	b.n	8001530 <HAL_GPIO_Init+0x154>
 8001590:	2504      	movs	r5, #4
 8001592:	e7cd      	b.n	8001530 <HAL_GPIO_Init+0x154>
 8001594:	2505      	movs	r5, #5
 8001596:	e7cb      	b.n	8001530 <HAL_GPIO_Init+0x154>
 8001598:	2506      	movs	r5, #6
 800159a:	e7c9      	b.n	8001530 <HAL_GPIO_Init+0x154>
 800159c:	2507      	movs	r5, #7
 800159e:	e7c7      	b.n	8001530 <HAL_GPIO_Init+0x154>
 80015a0:	2508      	movs	r5, #8
 80015a2:	e7c5      	b.n	8001530 <HAL_GPIO_Init+0x154>
 80015a4:	58020000 	.word	0x58020000
 80015a8:	58024400 	.word	0x58024400

080015ac <HAL_GPIO_ReadPin>:
 80015ac:	6903      	ldr	r3, [r0, #16]
 80015ae:	4219      	tst	r1, r3
 80015b0:	bf14      	ite	ne
 80015b2:	2001      	movne	r0, #1
 80015b4:	2000      	moveq	r0, #0
 80015b6:	4770      	bx	lr

080015b8 <HAL_GPIO_WritePin>:
 80015b8:	b10a      	cbz	r2, 80015be <HAL_GPIO_WritePin+0x6>
 80015ba:	6181      	str	r1, [r0, #24]
 80015bc:	4770      	bx	lr
 80015be:	0409      	lsls	r1, r1, #16
 80015c0:	e7fb      	b.n	80015ba <HAL_GPIO_WritePin+0x2>

080015c2 <I2C_Flush_TXDR>:
 80015c2:	6803      	ldr	r3, [r0, #0]
 80015c4:	699a      	ldr	r2, [r3, #24]
 80015c6:	0791      	lsls	r1, r2, #30
 80015c8:	d501      	bpl.n	80015ce <I2C_Flush_TXDR+0xc>
 80015ca:	2200      	movs	r2, #0
 80015cc:	629a      	str	r2, [r3, #40]	@ 0x28
 80015ce:	699a      	ldr	r2, [r3, #24]
 80015d0:	07d2      	lsls	r2, r2, #31
 80015d2:	d403      	bmi.n	80015dc <I2C_Flush_TXDR+0x1a>
 80015d4:	699a      	ldr	r2, [r3, #24]
 80015d6:	f042 0201 	orr.w	r2, r2, #1
 80015da:	619a      	str	r2, [r3, #24]
 80015dc:	4770      	bx	lr
	...

080015e0 <I2C_TransferConfig>:
 80015e0:	b530      	push	{r4, r5, lr}
 80015e2:	9d03      	ldr	r5, [sp, #12]
 80015e4:	f3c1 0109 	ubfx	r1, r1, #0, #10
 80015e8:	6804      	ldr	r4, [r0, #0]
 80015ea:	432b      	orrs	r3, r5
 80015ec:	6860      	ldr	r0, [r4, #4]
 80015ee:	ea43 4302 	orr.w	r3, r3, r2, lsl #16
 80015f2:	4a05      	ldr	r2, [pc, #20]	@ (8001608 <I2C_TransferConfig+0x28>)
 80015f4:	430b      	orrs	r3, r1
 80015f6:	ea42 5255 	orr.w	r2, r2, r5, lsr #21
 80015fa:	f023 4300 	bic.w	r3, r3, #2147483648	@ 0x80000000
 80015fe:	ea20 0002 	bic.w	r0, r0, r2
 8001602:	4303      	orrs	r3, r0
 8001604:	6063      	str	r3, [r4, #4]
 8001606:	bd30      	pop	{r4, r5, pc}
 8001608:	03ff63ff 	.word	0x03ff63ff

0800160c <I2C_IsErrorOccurred>:
 800160c:	6803      	ldr	r3, [r0, #0]
 800160e:	e92d 41f0 	stmdb	sp!, {r4, r5, r6, r7, r8, lr}
 8001612:	699c      	ldr	r4, [r3, #24]
 8001614:	4605      	mov	r5, r0
 8001616:	460f      	mov	r7, r1
 8001618:	4616      	mov	r6, r2
 800161a:	f014 0410 	ands.w	r4, r4, #16
 800161e:	d06f      	beq.n	8001700 <I2C_IsErrorOccurred+0xf4>
 8001620:	2400      	movs	r4, #0
 8001622:	2210      	movs	r2, #16
 8001624:	46a0      	mov	r8, r4
 8001626:	61da      	str	r2, [r3, #28]
 8001628:	682b      	ldr	r3, [r5, #0]
 800162a:	699a      	ldr	r2, [r3, #24]
 800162c:	0690      	lsls	r0, r2, #26
 800162e:	d461      	bmi.n	80016f4 <I2C_IsErrorOccurred+0xe8>
 8001630:	f1b8 0f00 	cmp.w	r8, #0
 8001634:	d035      	beq.n	80016a2 <I2C_IsErrorOccurred+0x96>
 8001636:	f044 0404 	orr.w	r4, r4, #4
 800163a:	2001      	movs	r0, #1
 800163c:	682e      	ldr	r6, [r5, #0]
 800163e:	69b3      	ldr	r3, [r6, #24]
 8001640:	05d9      	lsls	r1, r3, #23
 8001642:	d505      	bpl.n	8001650 <I2C_IsErrorOccurred+0x44>
 8001644:	f44f 7280 	mov.w	r2, #256	@ 0x100
 8001648:	f044 0401 	orr.w	r4, r4, #1
 800164c:	2001      	movs	r0, #1
 800164e:	61f2      	str	r2, [r6, #28]
 8001650:	055a      	lsls	r2, r3, #21
 8001652:	d505      	bpl.n	8001660 <I2C_IsErrorOccurred+0x54>
 8001654:	f44f 6280 	mov.w	r2, #1024	@ 0x400
 8001658:	f044 0408 	orr.w	r4, r4, #8
 800165c:	2001      	movs	r0, #1
 800165e:	61f2      	str	r2, [r6, #28]
 8001660:	059b      	lsls	r3, r3, #22
 8001662:	d54f      	bpl.n	8001704 <I2C_IsErrorOccurred+0xf8>
 8001664:	f44f 7300 	mov.w	r3, #512	@ 0x200
 8001668:	f044 0402 	orr.w	r4, r4, #2
 800166c:	61f3      	str	r3, [r6, #28]
 800166e:	4628      	mov	r0, r5
 8001670:	f7ff ffa7 	bl	80015c2 <I2C_Flush_TXDR>
 8001674:	6873      	ldr	r3, [r6, #4]
 8001676:	2001      	movs	r0, #1
 8001678:	f023 73ff 	bic.w	r3, r3, #33423360	@ 0x1fe0000
 800167c:	f423 338b 	bic.w	r3, r3, #71168	@ 0x11600
 8001680:	f423 73ff 	bic.w	r3, r3, #510	@ 0x1fe
 8001684:	f023 0301 	bic.w	r3, r3, #1
 8001688:	6073      	str	r3, [r6, #4]
 800168a:	6c6b      	ldr	r3, [r5, #68]	@ 0x44
 800168c:	4323      	orrs	r3, r4
 800168e:	646b      	str	r3, [r5, #68]	@ 0x44
 8001690:	2320      	movs	r3, #32
 8001692:	f885 3041 	strb.w	r3, [r5, #65]	@ 0x41
 8001696:	2300      	movs	r3, #0
 8001698:	f885 3042 	strb.w	r3, [r5, #66]	@ 0x42
 800169c:	f885 3040 	strb.w	r3, [r5, #64]	@ 0x40
 80016a0:	e032      	b.n	8001708 <I2C_IsErrorOccurred+0xfc>
 80016a2:	1c7a      	adds	r2, r7, #1
 80016a4:	d0c1      	beq.n	800162a <I2C_IsErrorOccurred+0x1e>
 80016a6:	f7ff fdaf 	bl	8001208 <HAL_GetTick>
 80016aa:	1b80      	subs	r0, r0, r6
 80016ac:	42b8      	cmp	r0, r7
 80016ae:	d801      	bhi.n	80016b4 <I2C_IsErrorOccurred+0xa8>
 80016b0:	2f00      	cmp	r7, #0
 80016b2:	d1b9      	bne.n	8001628 <I2C_IsErrorOccurred+0x1c>
 80016b4:	682b      	ldr	r3, [r5, #0]
 80016b6:	6859      	ldr	r1, [r3, #4]
 80016b8:	f895 2042 	ldrb.w	r2, [r5, #66]	@ 0x42
 80016bc:	6998      	ldr	r0, [r3, #24]
 80016be:	b2d2      	uxtb	r2, r2
 80016c0:	0400      	lsls	r0, r0, #16
 80016c2:	d50a      	bpl.n	80016da <I2C_IsErrorOccurred+0xce>
 80016c4:	0449      	lsls	r1, r1, #17
 80016c6:	d408      	bmi.n	80016da <I2C_IsErrorOccurred+0xce>
 80016c8:	2a20      	cmp	r2, #32
 80016ca:	d006      	beq.n	80016da <I2C_IsErrorOccurred+0xce>
 80016cc:	685a      	ldr	r2, [r3, #4]
 80016ce:	f442 4280 	orr.w	r2, r2, #16384	@ 0x4000
 80016d2:	605a      	str	r2, [r3, #4]
 80016d4:	f7ff fd98 	bl	8001208 <HAL_GetTick>
 80016d8:	4606      	mov	r6, r0
 80016da:	682b      	ldr	r3, [r5, #0]
 80016dc:	699b      	ldr	r3, [r3, #24]
 80016de:	069b      	lsls	r3, r3, #26
 80016e0:	d4a2      	bmi.n	8001628 <I2C_IsErrorOccurred+0x1c>
 80016e2:	f7ff fd91 	bl	8001208 <HAL_GetTick>
 80016e6:	1b80      	subs	r0, r0, r6
 80016e8:	2819      	cmp	r0, #25
 80016ea:	d9f6      	bls.n	80016da <I2C_IsErrorOccurred+0xce>
 80016ec:	2420      	movs	r4, #32
 80016ee:	f04f 0801 	mov.w	r8, #1
 80016f2:	e799      	b.n	8001628 <I2C_IsErrorOccurred+0x1c>
 80016f4:	f1b8 0f00 	cmp.w	r8, #0
 80016f8:	d19d      	bne.n	8001636 <I2C_IsErrorOccurred+0x2a>
 80016fa:	2220      	movs	r2, #32
 80016fc:	61da      	str	r2, [r3, #28]
 80016fe:	e79a      	b.n	8001636 <I2C_IsErrorOccurred+0x2a>
 8001700:	4620      	mov	r0, r4
 8001702:	e79b      	b.n	800163c <I2C_IsErrorOccurred+0x30>
 8001704:	2800      	cmp	r0, #0
 8001706:	d1b2      	bne.n	800166e <I2C_IsErrorOccurred+0x62>
 8001708:	e8bd 81f0 	ldmia.w	sp!, {r4, r5, r6, r7, r8, pc}

0800170c <I2C_WaitOnTXISFlagUntilTimeout>:
 800170c:	b570      	push	{r4, r5, r6, lr}
 800170e:	4604      	mov	r4, r0
 8001710:	460d      	mov	r5, r1
 8001712:	4616      	mov	r6, r2
 8001714:	6823      	ldr	r3, [r4, #0]
 8001716:	699b      	ldr	r3, [r3, #24]
 8001718:	079b      	lsls	r3, r3, #30
 800171a:	d501      	bpl.n	8001720 <I2C_WaitOnTXISFlagUntilTimeout+0x14>
 800171c:	2000      	movs	r0, #0
 800171e:	e01f      	b.n	8001760 <I2C_WaitOnTXISFlagUntilTimeout+0x54>
 8001720:	4632      	mov	r2, r6
 8001722:	4629      	mov	r1, r5
 8001724:	4620      	mov	r0, r4
 8001726:	f7ff ff71 	bl	800160c <I2C_IsErrorOccurred>
 800172a:	b9c0      	cbnz	r0, 800175e <I2C_WaitOnTXISFlagUntilTimeout+0x52>
 800172c:	1c6a      	adds	r2, r5, #1
 800172e:	d0f1      	beq.n	8001714 <I2C_WaitOnTXISFlagUntilTimeout+0x8>
 8001730:	f7ff fd6a 	bl	8001208 <HAL_GetTick>
 8001734:	1b80      	subs	r0, r0, r6
 8001736:	42a8      	cmp	r0, r5
 8001738:	d801      	bhi.n	800173e <I2C_WaitOnTXISFlagUntilTimeout+0x32>
 800173a:	2d00      	cmp	r5, #0
 800173c:	d1ea      	bne.n	8001714 <I2C_WaitOnTXISFlagUntilTimeout+0x8>
 800173e:	6823      	ldr	r3, [r4, #0]
 8001740:	699b      	ldr	r3, [r3, #24]
 8001742:	f013 0302 	ands.w	r3, r3, #2
 8001746:	d1e5      	bne.n	8001714 <I2C_WaitOnTXISFlagUntilTimeout+0x8>
 8001748:	6c62      	ldr	r2, [r4, #68]	@ 0x44
 800174a:	f884 3040 	strb.w	r3, [r4, #64]	@ 0x40
 800174e:	f042 0220 	orr.w	r2, r2, #32
 8001752:	6462      	str	r2, [r4, #68]	@ 0x44
 8001754:	2220      	movs	r2, #32
 8001756:	f884 2041 	strb.w	r2, [r4, #65]	@ 0x41
 800175a:	f884 3042 	strb.w	r3, [r4, #66]	@ 0x42
 800175e:	2001      	movs	r0, #1
 8001760:	bd70      	pop	{r4, r5, r6, pc}

08001762 <I2C_WaitOnFlagUntilTimeout>:
 8001762:	e92d 41f0 	stmdb	sp!, {r4, r5, r6, r7, r8, lr}
 8001766:	f8dd 8018 	ldr.w	r8, [sp, #24]
 800176a:	4604      	mov	r4, r0
 800176c:	460f      	mov	r7, r1
 800176e:	4616      	mov	r6, r2
 8001770:	461d      	mov	r5, r3
 8001772:	6823      	ldr	r3, [r4, #0]
 8001774:	699b      	ldr	r3, [r3, #24]
 8001776:	ea37 0303 	bics.w	r3, r7, r3
 800177a:	bf0c      	ite	eq
 800177c:	2301      	moveq	r3, #1
 800177e:	2300      	movne	r3, #0
 8001780:	42b3      	cmp	r3, r6
 8001782:	d001      	beq.n	8001788 <I2C_WaitOnFlagUntilTimeout+0x26>
 8001784:	2000      	movs	r0, #0
 8001786:	e025      	b.n	80017d4 <I2C_WaitOnFlagUntilTimeout+0x72>
 8001788:	4642      	mov	r2, r8
 800178a:	4629      	mov	r1, r5
 800178c:	4620      	mov	r0, r4
 800178e:	f7ff ff3d 	bl	800160c <I2C_IsErrorOccurred>
 8001792:	b9f0      	cbnz	r0, 80017d2 <I2C_WaitOnFlagUntilTimeout+0x70>
 8001794:	1c6b      	adds	r3, r5, #1
 8001796:	d0ec      	beq.n	8001772 <I2C_WaitOnFlagUntilTimeout+0x10>
 8001798:	f7ff fd36 	bl	8001208 <HAL_GetTick>
 800179c:	eba0 0008 	sub.w	r0, r0, r8
 80017a0:	42a8      	cmp	r0, r5
 80017a2:	d801      	bhi.n	80017a8 <I2C_WaitOnFlagUntilTimeout+0x46>
 80017a4:	2d00      	cmp	r5, #0
 80017a6:	d1e4      	bne.n	8001772 <I2C_WaitOnFlagUntilTimeout+0x10>
 80017a8:	6823      	ldr	r3, [r4, #0]
 80017aa:	699b      	ldr	r3, [r3, #24]
 80017ac:	ea37 0303 	bics.w	r3, r7, r3
 80017b0:	bf0c      	ite	eq
 80017b2:	2301      	moveq	r3, #1
 80017b4:	2300      	movne	r3, #0
 80017b6:	42b3      	cmp	r3, r6
 80017b8:	d1db      	bne.n	8001772 <I2C_WaitOnFlagUntilTimeout+0x10>
 80017ba:	6c63      	ldr	r3, [r4, #68]	@ 0x44
 80017bc:	f043 0320 	orr.w	r3, r3, #32
 80017c0:	6463      	str	r3, [r4, #68]	@ 0x44
 80017c2:	2320      	movs	r3, #32
 80017c4:	f884 3041 	strb.w	r3, [r4, #65]	@ 0x41
 80017c8:	2300      	movs	r3, #0
 80017ca:	f884 3042 	strb.w	r3, [r4, #66]	@ 0x42
 80017ce:	f884 3040 	strb.w	r3, [r4, #64]	@ 0x40
 80017d2:	2001      	movs	r0, #1
 80017d4:	e8bd 81f0 	ldmia.w	sp!, {r4, r5, r6, r7, r8, pc}

080017d8 <I2C_WaitOnSTOPFlagUntilTimeout>:
 80017d8:	b570      	push	{r4, r5, r6, lr}
 80017da:	4604      	mov	r4, r0
 80017dc:	460d      	mov	r5, r1
 80017de:	4616      	mov	r6, r2
 80017e0:	6823      	ldr	r3, [r4, #0]
 80017e2:	699b      	ldr	r3, [r3, #24]
 80017e4:	069b      	lsls	r3, r3, #26
 80017e6:	d501      	bpl.n	80017ec <I2C_WaitOnSTOPFlagUntilTimeout+0x14>
 80017e8:	2000      	movs	r0, #0
 80017ea:	e01d      	b.n	8001828 <I2C_WaitOnSTOPFlagUntilTimeout+0x50>
 80017ec:	4632      	mov	r2, r6
 80017ee:	4629      	mov	r1, r5
 80017f0:	4620      	mov	r0, r4
 80017f2:	f7ff ff0b 	bl	800160c <I2C_IsErrorOccurred>
 80017f6:	b9b0      	cbnz	r0, 8001826 <I2C_WaitOnSTOPFlagUntilTimeout+0x4e>
 80017f8:	f7ff fd06 	bl	8001208 <HAL_GetTick>
 80017fc:	1b80      	subs	r0, r0, r6
 80017fe:	42a8      	cmp	r0, r5
 8001800:	d801      	bhi.n	8001806 <I2C_WaitOnSTOPFlagUntilTimeout+0x2e>
 8001802:	2d00      	cmp	r5, #0
 8001804:	d1ec      	bne.n	80017e0 <I2C_WaitOnSTOPFlagUntilTimeout+0x8>
 8001806:	6823      	ldr	r3, [r4, #0]
 8001808:	699b      	ldr	r3, [r3, #24]
 800180a:	f013 0320 	ands.w	r3, r3, #32
 800180e:	d1e7      	bne.n	80017e0 <I2C_WaitOnSTOPFlagUntilTimeout+0x8>
 8001810:	6c62      	ldr	r2, [r4, #68]	@ 0x44
 8001812:	f884 3040 	strb.w	r3, [r4, #64]	@ 0x40
 8001816:	f042 0220 	orr.w	r2, r2, #32
 800181a:	6462      	str	r2, [r4, #68]	@ 0x44
 800181c:	2220      	movs	r2, #32
 800181e:	f884 2041 	strb.w	r2, [r4, #65]	@ 0x41
 8001822:	f884 3042 	strb.w	r3, [r4, #66]	@ 0x42
 8001826:	2001      	movs	r0, #1
 8001828:	bd70      	pop	{r4, r5, r6, pc}

0800182a <HAL_I2C_Init>:
 800182a:	b510      	push	{r4, lr}
 800182c:	4604      	mov	r4, r0
 800182e:	2800      	cmp	r0, #0
 8001830:	d04e      	beq.n	80018d0 <HAL_I2C_Init+0xa6>
 8001832:	f890 3041 	ldrb.w	r3, [r0, #65]	@ 0x41
 8001836:	f003 02ff 	and.w	r2, r3, #255	@ 0xff
 800183a:	b91b      	cbnz	r3, 8001844 <HAL_I2C_Init+0x1a>
 800183c:	f880 2040 	strb.w	r2, [r0, #64]	@ 0x40
 8001840:	f7ff fa94 	bl	8000d6c <HAL_I2C_MspInit>
 8001844:	2324      	movs	r3, #36	@ 0x24
 8001846:	f884 3041 	strb.w	r3, [r4, #65]	@ 0x41
 800184a:	6823      	ldr	r3, [r4, #0]
 800184c:	681a      	ldr	r2, [r3, #0]
 800184e:	f022 0201 	bic.w	r2, r2, #1
 8001852:	601a      	str	r2, [r3, #0]
 8001854:	6862      	ldr	r2, [r4, #4]
 8001856:	f022 6270 	bic.w	r2, r2, #251658240	@ 0xf000000
 800185a:	611a      	str	r2, [r3, #16]
 800185c:	689a      	ldr	r2, [r3, #8]
 800185e:	f422 4200 	bic.w	r2, r2, #32768	@ 0x8000
 8001862:	609a      	str	r2, [r3, #8]
 8001864:	e9d4 2102 	ldrd	r2, r1, [r4, #8]
 8001868:	2901      	cmp	r1, #1
 800186a:	d106      	bne.n	800187a <HAL_I2C_Init+0x50>
 800186c:	f442 4200 	orr.w	r2, r2, #32768	@ 0x8000
 8001870:	609a      	str	r2, [r3, #8]
 8001872:	685a      	ldr	r2, [r3, #4]
 8001874:	f422 6200 	bic.w	r2, r2, #2048	@ 0x800
 8001878:	e007      	b.n	800188a <HAL_I2C_Init+0x60>
 800187a:	f442 4204 	orr.w	r2, r2, #33792	@ 0x8400
 800187e:	2902      	cmp	r1, #2
 8001880:	609a      	str	r2, [r3, #8]
 8001882:	d1f6      	bne.n	8001872 <HAL_I2C_Init+0x48>
 8001884:	685a      	ldr	r2, [r3, #4]
 8001886:	f442 6200 	orr.w	r2, r2, #2048	@ 0x800
 800188a:	605a      	str	r2, [r3, #4]
 800188c:	2000      	movs	r0, #0
 800188e:	685a      	ldr	r2, [r3, #4]
 8001890:	f042 7200 	orr.w	r2, r2, #33554432	@ 0x2000000
 8001894:	f442 4200 	orr.w	r2, r2, #32768	@ 0x8000
 8001898:	605a      	str	r2, [r3, #4]
 800189a:	68da      	ldr	r2, [r3, #12]
 800189c:	f422 4200 	bic.w	r2, r2, #32768	@ 0x8000
 80018a0:	60da      	str	r2, [r3, #12]
 80018a2:	e9d4 2104 	ldrd	r2, r1, [r4, #16]
 80018a6:	430a      	orrs	r2, r1
 80018a8:	69a1      	ldr	r1, [r4, #24]
 80018aa:	ea42 2201 	orr.w	r2, r2, r1, lsl #8
 80018ae:	60da      	str	r2, [r3, #12]
 80018b0:	e9d4 2107 	ldrd	r2, r1, [r4, #28]
 80018b4:	430a      	orrs	r2, r1
 80018b6:	601a      	str	r2, [r3, #0]
 80018b8:	681a      	ldr	r2, [r3, #0]
 80018ba:	f042 0201 	orr.w	r2, r2, #1
 80018be:	601a      	str	r2, [r3, #0]
 80018c0:	2320      	movs	r3, #32
 80018c2:	6460      	str	r0, [r4, #68]	@ 0x44
 80018c4:	f884 3041 	strb.w	r3, [r4, #65]	@ 0x41
 80018c8:	6320      	str	r0, [r4, #48]	@ 0x30
 80018ca:	f884 0042 	strb.w	r0, [r4, #66]	@ 0x42
 80018ce:	bd10      	pop	{r4, pc}
 80018d0:	2001      	movs	r0, #1
 80018d2:	e7fc      	b.n	80018ce <HAL_I2C_Init+0xa4>

080018d4 <HAL_I2C_Mem_Write>:
 80018d4:	e92d 4ff7 	stmdb	sp!, {r0, r1, r2, r4, r5, r6, r7, r8, r9, sl, fp, lr}
 80018d8:	4699      	mov	r9, r3
 80018da:	f890 3041 	ldrb.w	r3, [r0, #65]	@ 0x41
 80018de:	4604      	mov	r4, r0
 80018e0:	460f      	mov	r7, r1
 80018e2:	2b20      	cmp	r3, #32
 80018e4:	4616      	mov	r6, r2
 80018e6:	f8bd a034 	ldrh.w	sl, [sp, #52]	@ 0x34
 80018ea:	f8dd 8038 	ldr.w	r8, [sp, #56]	@ 0x38
 80018ee:	f040 80c6 	bne.w	8001a7e <HAL_I2C_Mem_Write+0x1aa>
 80018f2:	9b0c      	ldr	r3, [sp, #48]	@ 0x30
 80018f4:	b113      	cbz	r3, 80018fc <HAL_I2C_Mem_Write+0x28>
 80018f6:	f1ba 0f00 	cmp.w	sl, #0
 80018fa:	d106      	bne.n	800190a <HAL_I2C_Mem_Write+0x36>
 80018fc:	f44f 7300 	mov.w	r3, #512	@ 0x200
 8001900:	6463      	str	r3, [r4, #68]	@ 0x44
 8001902:	2001      	movs	r0, #1
 8001904:	b003      	add	sp, #12
 8001906:	e8bd 8ff0 	ldmia.w	sp!, {r4, r5, r6, r7, r8, r9, sl, fp, pc}
 800190a:	f890 3040 	ldrb.w	r3, [r0, #64]	@ 0x40
 800190e:	2b01      	cmp	r3, #1
 8001910:	f000 80b5 	beq.w	8001a7e <HAL_I2C_Mem_Write+0x1aa>
 8001914:	f04f 0b01 	mov.w	fp, #1
 8001918:	f880 b040 	strb.w	fp, [r0, #64]	@ 0x40
 800191c:	f7ff fc74 	bl	8001208 <HAL_GetTick>
 8001920:	2319      	movs	r3, #25
 8001922:	4605      	mov	r5, r0
 8001924:	9000      	str	r0, [sp, #0]
 8001926:	465a      	mov	r2, fp
 8001928:	f44f 4100 	mov.w	r1, #32768	@ 0x8000
 800192c:	4620      	mov	r0, r4
 800192e:	f7ff ff18 	bl	8001762 <I2C_WaitOnFlagUntilTimeout>
 8001932:	2800      	cmp	r0, #0
 8001934:	d1e5      	bne.n	8001902 <HAL_I2C_Mem_Write+0x2e>
 8001936:	2321      	movs	r3, #33	@ 0x21
 8001938:	6360      	str	r0, [r4, #52]	@ 0x34
 800193a:	fa5f f289 	uxtb.w	r2, r9
 800193e:	4639      	mov	r1, r7
 8001940:	f884 3041 	strb.w	r3, [r4, #65]	@ 0x41
 8001944:	2340      	movs	r3, #64	@ 0x40
 8001946:	f884 3042 	strb.w	r3, [r4, #66]	@ 0x42
 800194a:	9b0c      	ldr	r3, [sp, #48]	@ 0x30
 800194c:	6460      	str	r0, [r4, #68]	@ 0x44
 800194e:	4620      	mov	r0, r4
 8001950:	6263      	str	r3, [r4, #36]	@ 0x24
 8001952:	4b4c      	ldr	r3, [pc, #304]	@ (8001a84 <HAL_I2C_Mem_Write+0x1b0>)
 8001954:	f8a4 a02a 	strh.w	sl, [r4, #42]	@ 0x2a
 8001958:	9300      	str	r3, [sp, #0]
 800195a:	f04f 7380 	mov.w	r3, #16777216	@ 0x1000000
 800195e:	f7ff fe3f 	bl	80015e0 <I2C_TransferConfig>
 8001962:	462a      	mov	r2, r5
 8001964:	4641      	mov	r1, r8
 8001966:	4620      	mov	r0, r4
 8001968:	f7ff fed0 	bl	800170c <I2C_WaitOnTXISFlagUntilTimeout>
 800196c:	bb18      	cbnz	r0, 80019b6 <HAL_I2C_Mem_Write+0xe2>
 800196e:	f1b9 0f01 	cmp.w	r9, #1
 8001972:	6823      	ldr	r3, [r4, #0]
 8001974:	d115      	bne.n	80019a2 <HAL_I2C_Mem_Write+0xce>
 8001976:	b2f6      	uxtb	r6, r6
 8001978:	2200      	movs	r2, #0
 800197a:	2180      	movs	r1, #128	@ 0x80
 800197c:	4620      	mov	r0, r4
 800197e:	629e      	str	r6, [r3, #40]	@ 0x28
 8001980:	4643      	mov	r3, r8
 8001982:	9500      	str	r5, [sp, #0]
 8001984:	f7ff feed 	bl	8001762 <I2C_WaitOnFlagUntilTimeout>
 8001988:	b9a8      	cbnz	r0, 80019b6 <HAL_I2C_Mem_Write+0xe2>
 800198a:	8d63      	ldrh	r3, [r4, #42]	@ 0x2a
 800198c:	b29b      	uxth	r3, r3
 800198e:	2bff      	cmp	r3, #255	@ 0xff
 8001990:	d815      	bhi.n	80019be <HAL_I2C_Mem_Write+0xea>
 8001992:	8d62      	ldrh	r2, [r4, #42]	@ 0x2a
 8001994:	f04f 7300 	mov.w	r3, #33554432	@ 0x2000000
 8001998:	b292      	uxth	r2, r2
 800199a:	8522      	strh	r2, [r4, #40]	@ 0x28
 800199c:	b2d2      	uxtb	r2, r2
 800199e:	9000      	str	r0, [sp, #0]
 80019a0:	e012      	b.n	80019c8 <HAL_I2C_Mem_Write+0xf4>
 80019a2:	0a32      	lsrs	r2, r6, #8
 80019a4:	4641      	mov	r1, r8
 80019a6:	4620      	mov	r0, r4
 80019a8:	629a      	str	r2, [r3, #40]	@ 0x28
 80019aa:	462a      	mov	r2, r5
 80019ac:	f7ff feae 	bl	800170c <I2C_WaitOnTXISFlagUntilTimeout>
 80019b0:	b908      	cbnz	r0, 80019b6 <HAL_I2C_Mem_Write+0xe2>
 80019b2:	6823      	ldr	r3, [r4, #0]
 80019b4:	e7df      	b.n	8001976 <HAL_I2C_Mem_Write+0xa2>
 80019b6:	2300      	movs	r3, #0
 80019b8:	f884 3040 	strb.w	r3, [r4, #64]	@ 0x40
 80019bc:	e7a1      	b.n	8001902 <HAL_I2C_Mem_Write+0x2e>
 80019be:	22ff      	movs	r2, #255	@ 0xff
 80019c0:	f04f 7380 	mov.w	r3, #16777216	@ 0x1000000
 80019c4:	8522      	strh	r2, [r4, #40]	@ 0x28
 80019c6:	9000      	str	r0, [sp, #0]
 80019c8:	4639      	mov	r1, r7
 80019ca:	4620      	mov	r0, r4
 80019cc:	f7ff fe08 	bl	80015e0 <I2C_TransferConfig>
 80019d0:	462a      	mov	r2, r5
 80019d2:	4641      	mov	r1, r8
 80019d4:	4620      	mov	r0, r4
 80019d6:	f7ff fe99 	bl	800170c <I2C_WaitOnTXISFlagUntilTimeout>
 80019da:	2800      	cmp	r0, #0
 80019dc:	d191      	bne.n	8001902 <HAL_I2C_Mem_Write+0x2e>
 80019de:	6a63      	ldr	r3, [r4, #36]	@ 0x24
 80019e0:	6822      	ldr	r2, [r4, #0]
 80019e2:	f813 1b01 	ldrb.w	r1, [r3], #1
 80019e6:	6291      	str	r1, [r2, #40]	@ 0x28
 80019e8:	6263      	str	r3, [r4, #36]	@ 0x24
 80019ea:	8d63      	ldrh	r3, [r4, #42]	@ 0x2a
 80019ec:	8d22      	ldrh	r2, [r4, #40]	@ 0x28
 80019ee:	3b01      	subs	r3, #1
 80019f0:	3a01      	subs	r2, #1
 80019f2:	b29b      	uxth	r3, r3
 80019f4:	b292      	uxth	r2, r2
 80019f6:	8563      	strh	r3, [r4, #42]	@ 0x2a
 80019f8:	8d63      	ldrh	r3, [r4, #42]	@ 0x2a
 80019fa:	8522      	strh	r2, [r4, #40]	@ 0x28
 80019fc:	b29b      	uxth	r3, r3
 80019fe:	b1b3      	cbz	r3, 8001a2e <HAL_I2C_Mem_Write+0x15a>
 8001a00:	b9aa      	cbnz	r2, 8001a2e <HAL_I2C_Mem_Write+0x15a>
 8001a02:	4643      	mov	r3, r8
 8001a04:	2180      	movs	r1, #128	@ 0x80
 8001a06:	4620      	mov	r0, r4
 8001a08:	9500      	str	r5, [sp, #0]
 8001a0a:	f7ff feaa 	bl	8001762 <I2C_WaitOnFlagUntilTimeout>
 8001a0e:	2800      	cmp	r0, #0
 8001a10:	f47f af77 	bne.w	8001902 <HAL_I2C_Mem_Write+0x2e>
 8001a14:	8d63      	ldrh	r3, [r4, #42]	@ 0x2a
 8001a16:	b29b      	uxth	r3, r3
 8001a18:	2bff      	cmp	r3, #255	@ 0xff
 8001a1a:	d928      	bls.n	8001a6e <HAL_I2C_Mem_Write+0x19a>
 8001a1c:	22ff      	movs	r2, #255	@ 0xff
 8001a1e:	f04f 7380 	mov.w	r3, #16777216	@ 0x1000000
 8001a22:	8522      	strh	r2, [r4, #40]	@ 0x28
 8001a24:	9000      	str	r0, [sp, #0]
 8001a26:	4639      	mov	r1, r7
 8001a28:	4620      	mov	r0, r4
 8001a2a:	f7ff fdd9 	bl	80015e0 <I2C_TransferConfig>
 8001a2e:	8d63      	ldrh	r3, [r4, #42]	@ 0x2a
 8001a30:	b29b      	uxth	r3, r3
 8001a32:	2b00      	cmp	r3, #0
 8001a34:	d1cc      	bne.n	80019d0 <HAL_I2C_Mem_Write+0xfc>
 8001a36:	462a      	mov	r2, r5
 8001a38:	4641      	mov	r1, r8
 8001a3a:	4620      	mov	r0, r4
 8001a3c:	f7ff fecc 	bl	80017d8 <I2C_WaitOnSTOPFlagUntilTimeout>
 8001a40:	2800      	cmp	r0, #0
 8001a42:	f47f af5e 	bne.w	8001902 <HAL_I2C_Mem_Write+0x2e>
 8001a46:	6823      	ldr	r3, [r4, #0]
 8001a48:	2120      	movs	r1, #32
 8001a4a:	61d9      	str	r1, [r3, #28]
 8001a4c:	685a      	ldr	r2, [r3, #4]
 8001a4e:	f022 72ff 	bic.w	r2, r2, #33423360	@ 0x1fe0000
 8001a52:	f422 328b 	bic.w	r2, r2, #71168	@ 0x11600
 8001a56:	f422 72ff 	bic.w	r2, r2, #510	@ 0x1fe
 8001a5a:	f022 0201 	bic.w	r2, r2, #1
 8001a5e:	605a      	str	r2, [r3, #4]
 8001a60:	f884 1041 	strb.w	r1, [r4, #65]	@ 0x41
 8001a64:	f884 0040 	strb.w	r0, [r4, #64]	@ 0x40
 8001a68:	f884 0042 	strb.w	r0, [r4, #66]	@ 0x42
 8001a6c:	e74a      	b.n	8001904 <HAL_I2C_Mem_Write+0x30>
 8001a6e:	8d62      	ldrh	r2, [r4, #42]	@ 0x2a
 8001a70:	f04f 7300 	mov.w	r3, #33554432	@ 0x2000000
 8001a74:	b292      	uxth	r2, r2
 8001a76:	8522      	strh	r2, [r4, #40]	@ 0x28
 8001a78:	b2d2      	uxtb	r2, r2
 8001a7a:	9000      	str	r0, [sp, #0]
 8001a7c:	e7d3      	b.n	8001a26 <HAL_I2C_Mem_Write+0x152>
 8001a7e:	2002      	movs	r0, #2
 8001a80:	e740      	b.n	8001904 <HAL_I2C_Mem_Write+0x30>
 8001a82:	bf00      	nop
 8001a84:	80002000 	.word	0x80002000

08001a88 <HAL_I2CEx_ConfigAnalogFilter>:
 8001a88:	b510      	push	{r4, lr}
 8001a8a:	f890 2041 	ldrb.w	r2, [r0, #65]	@ 0x41
 8001a8e:	4603      	mov	r3, r0
 8001a90:	2a20      	cmp	r2, #32
 8001a92:	b2d4      	uxtb	r4, r2
 8001a94:	d11c      	bne.n	8001ad0 <HAL_I2CEx_ConfigAnalogFilter+0x48>
 8001a96:	f890 2040 	ldrb.w	r2, [r0, #64]	@ 0x40
 8001a9a:	2a01      	cmp	r2, #1
 8001a9c:	d018      	beq.n	8001ad0 <HAL_I2CEx_ConfigAnalogFilter+0x48>
 8001a9e:	2224      	movs	r2, #36	@ 0x24
 8001aa0:	f880 2041 	strb.w	r2, [r0, #65]	@ 0x41
 8001aa4:	6802      	ldr	r2, [r0, #0]
 8001aa6:	6810      	ldr	r0, [r2, #0]
 8001aa8:	f020 0001 	bic.w	r0, r0, #1
 8001aac:	6010      	str	r0, [r2, #0]
 8001aae:	6810      	ldr	r0, [r2, #0]
 8001ab0:	f420 5080 	bic.w	r0, r0, #4096	@ 0x1000
 8001ab4:	6010      	str	r0, [r2, #0]
 8001ab6:	6810      	ldr	r0, [r2, #0]
 8001ab8:	4301      	orrs	r1, r0
 8001aba:	2000      	movs	r0, #0
 8001abc:	6011      	str	r1, [r2, #0]
 8001abe:	6811      	ldr	r1, [r2, #0]
 8001ac0:	f041 0101 	orr.w	r1, r1, #1
 8001ac4:	6011      	str	r1, [r2, #0]
 8001ac6:	f883 4041 	strb.w	r4, [r3, #65]	@ 0x41
 8001aca:	f883 0040 	strb.w	r0, [r3, #64]	@ 0x40
 8001ace:	bd10      	pop	{r4, pc}
 8001ad0:	2002      	movs	r0, #2
 8001ad2:	e7fc      	b.n	8001ace <HAL_I2CEx_ConfigAnalogFilter+0x46>

08001ad4 <HAL_I2CEx_ConfigDigitalFilter>:
 8001ad4:	b510      	push	{r4, lr}
 8001ad6:	f890 2041 	ldrb.w	r2, [r0, #65]	@ 0x41
 8001ada:	4603      	mov	r3, r0
 8001adc:	2a20      	cmp	r2, #32
 8001ade:	b2d4      	uxtb	r4, r2
 8001ae0:	d11b      	bne.n	8001b1a <HAL_I2CEx_ConfigDigitalFilter+0x46>
 8001ae2:	f890 2040 	ldrb.w	r2, [r0, #64]	@ 0x40
 8001ae6:	2a01      	cmp	r2, #1
 8001ae8:	d017      	beq.n	8001b1a <HAL_I2CEx_ConfigDigitalFilter+0x46>
 8001aea:	2224      	movs	r2, #36	@ 0x24
 8001aec:	f880 2041 	strb.w	r2, [r0, #65]	@ 0x41
 8001af0:	6802      	ldr	r2, [r0, #0]
 8001af2:	6810      	ldr	r0, [r2, #0]
 8001af4:	f020 0001 	bic.w	r0, r0, #1
 8001af8:	6010      	str	r0, [r2, #0]
 8001afa:	6810      	ldr	r0, [r2, #0]
 8001afc:	f420 6070 	bic.w	r0, r0, #3840	@ 0xf00
 8001b00:	ea40 2101 	orr.w	r1, r0, r1, lsl #8
 8001b04:	2000      	movs	r0, #0
 8001b06:	6011      	str	r1, [r2, #0]
 8001b08:	6811      	ldr	r1, [r2, #0]
 8001b0a:	f041 0101 	orr.w	r1, r1, #1
 8001b0e:	6011      	str	r1, [r2, #0]
 8001b10:	f883 4041 	strb.w	r4, [r3, #65]	@ 0x41
 8001b14:	f883 0040 	strb.w	r0, [r3, #64]	@ 0x40
 8001b18:	bd10      	pop	{r4, pc}
 8001b1a:	2002      	movs	r0, #2
 8001b1c:	e7fc      	b.n	8001b18 <HAL_I2CEx_ConfigDigitalFilter+0x44>
	...

08001b20 <HAL_PWREx_ConfigSupply>:
 8001b20:	b570      	push	{r4, r5, r6, lr}
 8001b22:	4d1c      	ldr	r5, [pc, #112]	@ (8001b94 <HAL_PWREx_ConfigSupply+0x74>)
 8001b24:	4604      	mov	r4, r0
 8001b26:	68eb      	ldr	r3, [r5, #12]
 8001b28:	f003 0307 	and.w	r3, r3, #7
 8001b2c:	2b06      	cmp	r3, #6
 8001b2e:	d006      	beq.n	8001b3e <HAL_PWREx_ConfigSupply+0x1e>
 8001b30:	68e8      	ldr	r0, [r5, #12]
 8001b32:	f000 003f 	and.w	r0, r0, #63	@ 0x3f
 8001b36:	1b00      	subs	r0, r0, r4
 8001b38:	bf18      	it	ne
 8001b3a:	2001      	movne	r0, #1
 8001b3c:	bd70      	pop	{r4, r5, r6, pc}
 8001b3e:	68eb      	ldr	r3, [r5, #12]
 8001b40:	f023 033f 	bic.w	r3, r3, #63	@ 0x3f
 8001b44:	4303      	orrs	r3, r0
 8001b46:	60eb      	str	r3, [r5, #12]
 8001b48:	f7ff fb5e 	bl	8001208 <HAL_GetTick>
 8001b4c:	4606      	mov	r6, r0
 8001b4e:	686b      	ldr	r3, [r5, #4]
 8001b50:	049a      	lsls	r2, r3, #18
 8001b52:	d508      	bpl.n	8001b66 <HAL_PWREx_ConfigSupply+0x46>
 8001b54:	f1a4 031d 	sub.w	r3, r4, #29
 8001b58:	2b01      	cmp	r3, #1
 8001b5a:	d90c      	bls.n	8001b76 <HAL_PWREx_ConfigSupply+0x56>
 8001b5c:	3c2d      	subs	r4, #45	@ 0x2d
 8001b5e:	2c01      	cmp	r4, #1
 8001b60:	d909      	bls.n	8001b76 <HAL_PWREx_ConfigSupply+0x56>
 8001b62:	2000      	movs	r0, #0
 8001b64:	e7ea      	b.n	8001b3c <HAL_PWREx_ConfigSupply+0x1c>
 8001b66:	f7ff fb4f 	bl	8001208 <HAL_GetTick>
 8001b6a:	1b80      	subs	r0, r0, r6
 8001b6c:	f5b0 7f7a 	cmp.w	r0, #1000	@ 0x3e8
 8001b70:	d9ed      	bls.n	8001b4e <HAL_PWREx_ConfigSupply+0x2e>
 8001b72:	2001      	movs	r0, #1
 8001b74:	e7e2      	b.n	8001b3c <HAL_PWREx_ConfigSupply+0x1c>
 8001b76:	f7ff fb47 	bl	8001208 <HAL_GetTick>
 8001b7a:	4d06      	ldr	r5, [pc, #24]	@ (8001b94 <HAL_PWREx_ConfigSupply+0x74>)
 8001b7c:	4604      	mov	r4, r0
 8001b7e:	68eb      	ldr	r3, [r5, #12]
 8001b80:	03db      	lsls	r3, r3, #15
 8001b82:	d4ee      	bmi.n	8001b62 <HAL_PWREx_ConfigSupply+0x42>
 8001b84:	f7ff fb40 	bl	8001208 <HAL_GetTick>
 8001b88:	1b00      	subs	r0, r0, r4
 8001b8a:	f5b0 7f7a 	cmp.w	r0, #1000	@ 0x3e8
 8001b8e:	d9f6      	bls.n	8001b7e <HAL_PWREx_ConfigSupply+0x5e>
 8001b90:	e7ef      	b.n	8001b72 <HAL_PWREx_ConfigSupply+0x52>
 8001b92:	bf00      	nop
 8001b94:	58024800 	.word	0x58024800

08001b98 <HAL_RCC_OscConfig>:
 8001b98:	b5f8      	push	{r3, r4, r5, r6, r7, lr}
 8001b9a:	4604      	mov	r4, r0
 8001b9c:	2800      	cmp	r0, #0
 8001b9e:	d069      	beq.n	8001c74 <HAL_RCC_OscConfig+0xdc>
 8001ba0:	6803      	ldr	r3, [r0, #0]
 8001ba2:	07d8      	lsls	r0, r3, #31
 8001ba4:	d453      	bmi.n	8001c4e <HAL_RCC_OscConfig+0xb6>
 8001ba6:	6823      	ldr	r3, [r4, #0]
 8001ba8:	0799      	lsls	r1, r3, #30
 8001baa:	f100 80b8 	bmi.w	8001d1e <HAL_RCC_OscConfig+0x186>
 8001bae:	6823      	ldr	r3, [r4, #0]
 8001bb0:	06da      	lsls	r2, r3, #27
 8001bb2:	d51c      	bpl.n	8001bee <HAL_RCC_OscConfig+0x56>
 8001bb4:	4a96      	ldr	r2, [pc, #600]	@ (8001e10 <HAL_RCC_OscConfig+0x278>)
 8001bb6:	6913      	ldr	r3, [r2, #16]
 8001bb8:	6a91      	ldr	r1, [r2, #40]	@ 0x28
 8001bba:	f003 0338 	and.w	r3, r3, #56	@ 0x38
 8001bbe:	2b08      	cmp	r3, #8
 8001bc0:	d007      	beq.n	8001bd2 <HAL_RCC_OscConfig+0x3a>
 8001bc2:	2b18      	cmp	r3, #24
 8001bc4:	f040 80f8 	bne.w	8001db8 <HAL_RCC_OscConfig+0x220>
 8001bc8:	f001 0303 	and.w	r3, r1, #3
 8001bcc:	2b01      	cmp	r3, #1
 8001bce:	f040 80f3 	bne.w	8001db8 <HAL_RCC_OscConfig+0x220>
 8001bd2:	6813      	ldr	r3, [r2, #0]
 8001bd4:	05db      	lsls	r3, r3, #23
 8001bd6:	d502      	bpl.n	8001bde <HAL_RCC_OscConfig+0x46>
 8001bd8:	69e3      	ldr	r3, [r4, #28]
 8001bda:	2b80      	cmp	r3, #128	@ 0x80
 8001bdc:	d14a      	bne.n	8001c74 <HAL_RCC_OscConfig+0xdc>
 8001bde:	4a8c      	ldr	r2, [pc, #560]	@ (8001e10 <HAL_RCC_OscConfig+0x278>)
 8001be0:	6a21      	ldr	r1, [r4, #32]
 8001be2:	68d3      	ldr	r3, [r2, #12]
 8001be4:	f023 537c 	bic.w	r3, r3, #1056964608	@ 0x3f000000
 8001be8:	ea43 6301 	orr.w	r3, r3, r1, lsl #24
 8001bec:	60d3      	str	r3, [r2, #12]
 8001bee:	6823      	ldr	r3, [r4, #0]
 8001bf0:	0719      	lsls	r1, r3, #28
 8001bf2:	f100 8111 	bmi.w	8001e18 <HAL_RCC_OscConfig+0x280>
 8001bf6:	6823      	ldr	r3, [r4, #0]
 8001bf8:	069a      	lsls	r2, r3, #26
 8001bfa:	f100 8132 	bmi.w	8001e62 <HAL_RCC_OscConfig+0x2ca>
 8001bfe:	6823      	ldr	r3, [r4, #0]
 8001c00:	075d      	lsls	r5, r3, #29
 8001c02:	d51e      	bpl.n	8001c42 <HAL_RCC_OscConfig+0xaa>
 8001c04:	4d83      	ldr	r5, [pc, #524]	@ (8001e14 <HAL_RCC_OscConfig+0x27c>)
 8001c06:	682b      	ldr	r3, [r5, #0]
 8001c08:	f443 7380 	orr.w	r3, r3, #256	@ 0x100
 8001c0c:	602b      	str	r3, [r5, #0]
 8001c0e:	f7ff fafb 	bl	8001208 <HAL_GetTick>
 8001c12:	4606      	mov	r6, r0
 8001c14:	682b      	ldr	r3, [r5, #0]
 8001c16:	05da      	lsls	r2, r3, #23
 8001c18:	f140 8148 	bpl.w	8001eac <HAL_RCC_OscConfig+0x314>
 8001c1c:	68a3      	ldr	r3, [r4, #8]
 8001c1e:	4d7c      	ldr	r5, [pc, #496]	@ (8001e10 <HAL_RCC_OscConfig+0x278>)
 8001c20:	2b01      	cmp	r3, #1
 8001c22:	f040 814a 	bne.w	8001eba <HAL_RCC_OscConfig+0x322>
 8001c26:	6f2b      	ldr	r3, [r5, #112]	@ 0x70
 8001c28:	f043 0301 	orr.w	r3, r3, #1
 8001c2c:	672b      	str	r3, [r5, #112]	@ 0x70
 8001c2e:	f241 3788 	movw	r7, #5000	@ 0x1388
 8001c32:	f7ff fae9 	bl	8001208 <HAL_GetTick>
 8001c36:	4e76      	ldr	r6, [pc, #472]	@ (8001e10 <HAL_RCC_OscConfig+0x278>)
 8001c38:	4605      	mov	r5, r0
 8001c3a:	6f33      	ldr	r3, [r6, #112]	@ 0x70
 8001c3c:	079b      	lsls	r3, r3, #30
 8001c3e:	f140 8178 	bpl.w	8001f32 <HAL_RCC_OscConfig+0x39a>
 8001c42:	6a61      	ldr	r1, [r4, #36]	@ 0x24
 8001c44:	2900      	cmp	r1, #0
 8001c46:	f040 817b 	bne.w	8001f40 <HAL_RCC_OscConfig+0x3a8>
 8001c4a:	2000      	movs	r0, #0
 8001c4c:	e02a      	b.n	8001ca4 <HAL_RCC_OscConfig+0x10c>
 8001c4e:	4a70      	ldr	r2, [pc, #448]	@ (8001e10 <HAL_RCC_OscConfig+0x278>)
 8001c50:	6913      	ldr	r3, [r2, #16]
 8001c52:	6a91      	ldr	r1, [r2, #40]	@ 0x28
 8001c54:	f003 0338 	and.w	r3, r3, #56	@ 0x38
 8001c58:	2b10      	cmp	r3, #16
 8001c5a:	d005      	beq.n	8001c68 <HAL_RCC_OscConfig+0xd0>
 8001c5c:	2b18      	cmp	r3, #24
 8001c5e:	d10b      	bne.n	8001c78 <HAL_RCC_OscConfig+0xe0>
 8001c60:	f001 0303 	and.w	r3, r1, #3
 8001c64:	2b02      	cmp	r3, #2
 8001c66:	d107      	bne.n	8001c78 <HAL_RCC_OscConfig+0xe0>
 8001c68:	6813      	ldr	r3, [r2, #0]
 8001c6a:	039a      	lsls	r2, r3, #14
 8001c6c:	d59b      	bpl.n	8001ba6 <HAL_RCC_OscConfig+0xe>
 8001c6e:	6863      	ldr	r3, [r4, #4]
 8001c70:	2b00      	cmp	r3, #0
 8001c72:	d198      	bne.n	8001ba6 <HAL_RCC_OscConfig+0xe>
 8001c74:	2001      	movs	r0, #1
 8001c76:	e015      	b.n	8001ca4 <HAL_RCC_OscConfig+0x10c>
 8001c78:	6863      	ldr	r3, [r4, #4]
 8001c7a:	4d65      	ldr	r5, [pc, #404]	@ (8001e10 <HAL_RCC_OscConfig+0x278>)
 8001c7c:	f5b3 3f80 	cmp.w	r3, #65536	@ 0x10000
 8001c80:	d111      	bne.n	8001ca6 <HAL_RCC_OscConfig+0x10e>
 8001c82:	682b      	ldr	r3, [r5, #0]
 8001c84:	f443 3380 	orr.w	r3, r3, #65536	@ 0x10000
 8001c88:	602b      	str	r3, [r5, #0]
 8001c8a:	f7ff fabd 	bl	8001208 <HAL_GetTick>
 8001c8e:	4e60      	ldr	r6, [pc, #384]	@ (8001e10 <HAL_RCC_OscConfig+0x278>)
 8001c90:	4605      	mov	r5, r0
 8001c92:	6833      	ldr	r3, [r6, #0]
 8001c94:	039b      	lsls	r3, r3, #14
 8001c96:	d486      	bmi.n	8001ba6 <HAL_RCC_OscConfig+0xe>
 8001c98:	f7ff fab6 	bl	8001208 <HAL_GetTick>
 8001c9c:	1b40      	subs	r0, r0, r5
 8001c9e:	2864      	cmp	r0, #100	@ 0x64
 8001ca0:	d9f7      	bls.n	8001c92 <HAL_RCC_OscConfig+0xfa>
 8001ca2:	2003      	movs	r0, #3
 8001ca4:	bdf8      	pop	{r3, r4, r5, r6, r7, pc}
 8001ca6:	b9c3      	cbnz	r3, 8001cda <HAL_RCC_OscConfig+0x142>
 8001ca8:	682b      	ldr	r3, [r5, #0]
 8001caa:	f423 3380 	bic.w	r3, r3, #65536	@ 0x10000
 8001cae:	602b      	str	r3, [r5, #0]
 8001cb0:	682b      	ldr	r3, [r5, #0]
 8001cb2:	f423 1380 	bic.w	r3, r3, #1048576	@ 0x100000
 8001cb6:	602b      	str	r3, [r5, #0]
 8001cb8:	682b      	ldr	r3, [r5, #0]
 8001cba:	f423 2380 	bic.w	r3, r3, #262144	@ 0x40000
 8001cbe:	602b      	str	r3, [r5, #0]
 8001cc0:	f7ff faa2 	bl	8001208 <HAL_GetTick>
 8001cc4:	4606      	mov	r6, r0
 8001cc6:	682b      	ldr	r3, [r5, #0]
 8001cc8:	039f      	lsls	r7, r3, #14
 8001cca:	f57f af6c 	bpl.w	8001ba6 <HAL_RCC_OscConfig+0xe>
 8001cce:	f7ff fa9b 	bl	8001208 <HAL_GetTick>
 8001cd2:	1b80      	subs	r0, r0, r6
 8001cd4:	2864      	cmp	r0, #100	@ 0x64
 8001cd6:	d9f6      	bls.n	8001cc6 <HAL_RCC_OscConfig+0x12e>
 8001cd8:	e7e3      	b.n	8001ca2 <HAL_RCC_OscConfig+0x10a>
 8001cda:	f5b3 2fa0 	cmp.w	r3, #327680	@ 0x50000
 8001cde:	d108      	bne.n	8001cf2 <HAL_RCC_OscConfig+0x15a>
 8001ce0:	682b      	ldr	r3, [r5, #0]
 8001ce2:	f443 2380 	orr.w	r3, r3, #262144	@ 0x40000
 8001ce6:	602b      	str	r3, [r5, #0]
 8001ce8:	682b      	ldr	r3, [r5, #0]
 8001cea:	f423 1380 	bic.w	r3, r3, #1048576	@ 0x100000
 8001cee:	602b      	str	r3, [r5, #0]
 8001cf0:	e7c7      	b.n	8001c82 <HAL_RCC_OscConfig+0xea>
 8001cf2:	f5b3 1fa8 	cmp.w	r3, #1376256	@ 0x150000
 8001cf6:	682b      	ldr	r3, [r5, #0]
 8001cf8:	d106      	bne.n	8001d08 <HAL_RCC_OscConfig+0x170>
 8001cfa:	f443 2380 	orr.w	r3, r3, #262144	@ 0x40000
 8001cfe:	602b      	str	r3, [r5, #0]
 8001d00:	682b      	ldr	r3, [r5, #0]
 8001d02:	f443 1380 	orr.w	r3, r3, #1048576	@ 0x100000
 8001d06:	e7f2      	b.n	8001cee <HAL_RCC_OscConfig+0x156>
 8001d08:	f423 3380 	bic.w	r3, r3, #65536	@ 0x10000
 8001d0c:	602b      	str	r3, [r5, #0]
 8001d0e:	682b      	ldr	r3, [r5, #0]
 8001d10:	f423 2380 	bic.w	r3, r3, #262144	@ 0x40000
 8001d14:	602b      	str	r3, [r5, #0]
 8001d16:	682b      	ldr	r3, [r5, #0]
 8001d18:	f423 1380 	bic.w	r3, r3, #1048576	@ 0x100000
 8001d1c:	e7b4      	b.n	8001c88 <HAL_RCC_OscConfig+0xf0>
 8001d1e:	493c      	ldr	r1, [pc, #240]	@ (8001e10 <HAL_RCC_OscConfig+0x278>)
 8001d20:	68e2      	ldr	r2, [r4, #12]
 8001d22:	690b      	ldr	r3, [r1, #16]
 8001d24:	6a88      	ldr	r0, [r1, #40]	@ 0x28
 8001d26:	f013 0338 	ands.w	r3, r3, #56	@ 0x38
 8001d2a:	d003      	beq.n	8001d34 <HAL_RCC_OscConfig+0x19c>
 8001d2c:	2b18      	cmp	r3, #24
 8001d2e:	d120      	bne.n	8001d72 <HAL_RCC_OscConfig+0x1da>
 8001d30:	0780      	lsls	r0, r0, #30
 8001d32:	d11e      	bne.n	8001d72 <HAL_RCC_OscConfig+0x1da>
 8001d34:	680b      	ldr	r3, [r1, #0]
 8001d36:	075b      	lsls	r3, r3, #29
 8001d38:	d501      	bpl.n	8001d3e <HAL_RCC_OscConfig+0x1a6>
 8001d3a:	2a00      	cmp	r2, #0
 8001d3c:	d09a      	beq.n	8001c74 <HAL_RCC_OscConfig+0xdc>
 8001d3e:	4d34      	ldr	r5, [pc, #208]	@ (8001e10 <HAL_RCC_OscConfig+0x278>)
 8001d40:	682b      	ldr	r3, [r5, #0]
 8001d42:	f023 0319 	bic.w	r3, r3, #25
 8001d46:	4313      	orrs	r3, r2
 8001d48:	602b      	str	r3, [r5, #0]
 8001d4a:	f7ff fa5d 	bl	8001208 <HAL_GetTick>
 8001d4e:	4606      	mov	r6, r0
 8001d50:	682b      	ldr	r3, [r5, #0]
 8001d52:	075f      	lsls	r7, r3, #29
 8001d54:	d507      	bpl.n	8001d66 <HAL_RCC_OscConfig+0x1ce>
 8001d56:	686b      	ldr	r3, [r5, #4]
 8001d58:	6922      	ldr	r2, [r4, #16]
 8001d5a:	f023 43fe 	bic.w	r3, r3, #2130706432	@ 0x7f000000
 8001d5e:	ea43 6302 	orr.w	r3, r3, r2, lsl #24
 8001d62:	606b      	str	r3, [r5, #4]
 8001d64:	e723      	b.n	8001bae <HAL_RCC_OscConfig+0x16>
 8001d66:	f7ff fa4f 	bl	8001208 <HAL_GetTick>
 8001d6a:	1b80      	subs	r0, r0, r6
 8001d6c:	2802      	cmp	r0, #2
 8001d6e:	d9ef      	bls.n	8001d50 <HAL_RCC_OscConfig+0x1b8>
 8001d70:	e797      	b.n	8001ca2 <HAL_RCC_OscConfig+0x10a>
 8001d72:	4d27      	ldr	r5, [pc, #156]	@ (8001e10 <HAL_RCC_OscConfig+0x278>)
 8001d74:	682b      	ldr	r3, [r5, #0]
 8001d76:	b17a      	cbz	r2, 8001d98 <HAL_RCC_OscConfig+0x200>
 8001d78:	f023 0319 	bic.w	r3, r3, #25
 8001d7c:	4313      	orrs	r3, r2
 8001d7e:	602b      	str	r3, [r5, #0]
 8001d80:	f7ff fa42 	bl	8001208 <HAL_GetTick>
 8001d84:	4606      	mov	r6, r0
 8001d86:	682b      	ldr	r3, [r5, #0]
 8001d88:	0758      	lsls	r0, r3, #29
 8001d8a:	d4e4      	bmi.n	8001d56 <HAL_RCC_OscConfig+0x1be>
 8001d8c:	f7ff fa3c 	bl	8001208 <HAL_GetTick>
 8001d90:	1b80      	subs	r0, r0, r6
 8001d92:	2802      	cmp	r0, #2
 8001d94:	d9f7      	bls.n	8001d86 <HAL_RCC_OscConfig+0x1ee>
 8001d96:	e784      	b.n	8001ca2 <HAL_RCC_OscConfig+0x10a>
 8001d98:	f023 0301 	bic.w	r3, r3, #1
 8001d9c:	602b      	str	r3, [r5, #0]
 8001d9e:	f7ff fa33 	bl	8001208 <HAL_GetTick>
 8001da2:	4606      	mov	r6, r0
 8001da4:	682b      	ldr	r3, [r5, #0]
 8001da6:	0759      	lsls	r1, r3, #29
 8001da8:	f57f af01 	bpl.w	8001bae <HAL_RCC_OscConfig+0x16>
 8001dac:	f7ff fa2c 	bl	8001208 <HAL_GetTick>
 8001db0:	1b80      	subs	r0, r0, r6
 8001db2:	2802      	cmp	r0, #2
 8001db4:	d9f6      	bls.n	8001da4 <HAL_RCC_OscConfig+0x20c>
 8001db6:	e774      	b.n	8001ca2 <HAL_RCC_OscConfig+0x10a>
 8001db8:	69e3      	ldr	r3, [r4, #28]
 8001dba:	4d15      	ldr	r5, [pc, #84]	@ (8001e10 <HAL_RCC_OscConfig+0x278>)
 8001dbc:	b1bb      	cbz	r3, 8001dee <HAL_RCC_OscConfig+0x256>
 8001dbe:	682b      	ldr	r3, [r5, #0]
 8001dc0:	f043 0380 	orr.w	r3, r3, #128	@ 0x80
 8001dc4:	602b      	str	r3, [r5, #0]
 8001dc6:	f7ff fa1f 	bl	8001208 <HAL_GetTick>
 8001dca:	4606      	mov	r6, r0
 8001dcc:	682b      	ldr	r3, [r5, #0]
 8001dce:	05df      	lsls	r7, r3, #23
 8001dd0:	d507      	bpl.n	8001de2 <HAL_RCC_OscConfig+0x24a>
 8001dd2:	68eb      	ldr	r3, [r5, #12]
 8001dd4:	6a22      	ldr	r2, [r4, #32]
 8001dd6:	f023 537c 	bic.w	r3, r3, #1056964608	@ 0x3f000000
 8001dda:	ea43 6302 	orr.w	r3, r3, r2, lsl #24
 8001dde:	60eb      	str	r3, [r5, #12]
 8001de0:	e705      	b.n	8001bee <HAL_RCC_OscConfig+0x56>
 8001de2:	f7ff fa11 	bl	8001208 <HAL_GetTick>
 8001de6:	1b80      	subs	r0, r0, r6
 8001de8:	2802      	cmp	r0, #2
 8001dea:	d9ef      	bls.n	8001dcc <HAL_RCC_OscConfig+0x234>
 8001dec:	e759      	b.n	8001ca2 <HAL_RCC_OscConfig+0x10a>
 8001dee:	682b      	ldr	r3, [r5, #0]
 8001df0:	f023 0380 	bic.w	r3, r3, #128	@ 0x80
 8001df4:	602b      	str	r3, [r5, #0]
 8001df6:	f7ff fa07 	bl	8001208 <HAL_GetTick>
 8001dfa:	4606      	mov	r6, r0
 8001dfc:	682b      	ldr	r3, [r5, #0]
 8001dfe:	05d8      	lsls	r0, r3, #23
 8001e00:	f57f aef5 	bpl.w	8001bee <HAL_RCC_OscConfig+0x56>
 8001e04:	f7ff fa00 	bl	8001208 <HAL_GetTick>
 8001e08:	1b80      	subs	r0, r0, r6
 8001e0a:	2802      	cmp	r0, #2
 8001e0c:	d9f6      	bls.n	8001dfc <HAL_RCC_OscConfig+0x264>
 8001e0e:	e748      	b.n	8001ca2 <HAL_RCC_OscConfig+0x10a>
 8001e10:	58024400 	.word	0x58024400
 8001e14:	58024800 	.word	0x58024800
 8001e18:	6963      	ldr	r3, [r4, #20]
 8001e1a:	4d8a      	ldr	r5, [pc, #552]	@ (8002044 <HAL_RCC_OscConfig+0x4ac>)
 8001e1c:	b183      	cbz	r3, 8001e40 <HAL_RCC_OscConfig+0x2a8>
 8001e1e:	6f6b      	ldr	r3, [r5, #116]	@ 0x74
 8001e20:	f043 0301 	orr.w	r3, r3, #1
 8001e24:	676b      	str	r3, [r5, #116]	@ 0x74
 8001e26:	f7ff f9ef 	bl	8001208 <HAL_GetTick>
 8001e2a:	4606      	mov	r6, r0
 8001e2c:	6f6b      	ldr	r3, [r5, #116]	@ 0x74
 8001e2e:	079b      	lsls	r3, r3, #30
 8001e30:	f53f aee1 	bmi.w	8001bf6 <HAL_RCC_OscConfig+0x5e>
 8001e34:	f7ff f9e8 	bl	8001208 <HAL_GetTick>
 8001e38:	1b80      	subs	r0, r0, r6
 8001e3a:	2802      	cmp	r0, #2
 8001e3c:	d9f6      	bls.n	8001e2c <HAL_RCC_OscConfig+0x294>
 8001e3e:	e730      	b.n	8001ca2 <HAL_RCC_OscConfig+0x10a>
 8001e40:	6f6b      	ldr	r3, [r5, #116]	@ 0x74
 8001e42:	f023 0301 	bic.w	r3, r3, #1
 8001e46:	676b      	str	r3, [r5, #116]	@ 0x74
 8001e48:	f7ff f9de 	bl	8001208 <HAL_GetTick>
 8001e4c:	4606      	mov	r6, r0
 8001e4e:	6f6b      	ldr	r3, [r5, #116]	@ 0x74
 8001e50:	079f      	lsls	r7, r3, #30
 8001e52:	f57f aed0 	bpl.w	8001bf6 <HAL_RCC_OscConfig+0x5e>
 8001e56:	f7ff f9d7 	bl	8001208 <HAL_GetTick>
 8001e5a:	1b80      	subs	r0, r0, r6
 8001e5c:	2802      	cmp	r0, #2
 8001e5e:	d9f6      	bls.n	8001e4e <HAL_RCC_OscConfig+0x2b6>
 8001e60:	e71f      	b.n	8001ca2 <HAL_RCC_OscConfig+0x10a>
 8001e62:	69a3      	ldr	r3, [r4, #24]
 8001e64:	4d77      	ldr	r5, [pc, #476]	@ (8002044 <HAL_RCC_OscConfig+0x4ac>)
 8001e66:	b183      	cbz	r3, 8001e8a <HAL_RCC_OscConfig+0x2f2>
 8001e68:	682b      	ldr	r3, [r5, #0]
 8001e6a:	f443 5380 	orr.w	r3, r3, #4096	@ 0x1000
 8001e6e:	602b      	str	r3, [r5, #0]
 8001e70:	f7ff f9ca 	bl	8001208 <HAL_GetTick>
 8001e74:	4606      	mov	r6, r0
 8001e76:	682b      	ldr	r3, [r5, #0]
 8001e78:	0498      	lsls	r0, r3, #18
 8001e7a:	f53f aec0 	bmi.w	8001bfe <HAL_RCC_OscConfig+0x66>
 8001e7e:	f7ff f9c3 	bl	8001208 <HAL_GetTick>
 8001e82:	1b80      	subs	r0, r0, r6
 8001e84:	2802      	cmp	r0, #2
 8001e86:	d9f6      	bls.n	8001e76 <HAL_RCC_OscConfig+0x2de>
 8001e88:	e70b      	b.n	8001ca2 <HAL_RCC_OscConfig+0x10a>
 8001e8a:	682b      	ldr	r3, [r5, #0]
 8001e8c:	f423 5380 	bic.w	r3, r3, #4096	@ 0x1000
 8001e90:	602b      	str	r3, [r5, #0]
 8001e92:	f7ff f9b9 	bl	8001208 <HAL_GetTick>
 8001e96:	4606      	mov	r6, r0
 8001e98:	682b      	ldr	r3, [r5, #0]
 8001e9a:	0499      	lsls	r1, r3, #18
 8001e9c:	f57f aeaf 	bpl.w	8001bfe <HAL_RCC_OscConfig+0x66>
 8001ea0:	f7ff f9b2 	bl	8001208 <HAL_GetTick>
 8001ea4:	1b80      	subs	r0, r0, r6
 8001ea6:	2802      	cmp	r0, #2
 8001ea8:	d9f6      	bls.n	8001e98 <HAL_RCC_OscConfig+0x300>
 8001eaa:	e6fa      	b.n	8001ca2 <HAL_RCC_OscConfig+0x10a>
 8001eac:	f7ff f9ac 	bl	8001208 <HAL_GetTick>
 8001eb0:	1b80      	subs	r0, r0, r6
 8001eb2:	2864      	cmp	r0, #100	@ 0x64
 8001eb4:	f67f aeae 	bls.w	8001c14 <HAL_RCC_OscConfig+0x7c>
 8001eb8:	e6f3      	b.n	8001ca2 <HAL_RCC_OscConfig+0x10a>
 8001eba:	b9d3      	cbnz	r3, 8001ef2 <HAL_RCC_OscConfig+0x35a>
 8001ebc:	6f2b      	ldr	r3, [r5, #112]	@ 0x70
 8001ebe:	f241 3788 	movw	r7, #5000	@ 0x1388
 8001ec2:	f023 0301 	bic.w	r3, r3, #1
 8001ec6:	672b      	str	r3, [r5, #112]	@ 0x70
 8001ec8:	6f2b      	ldr	r3, [r5, #112]	@ 0x70
 8001eca:	f023 0380 	bic.w	r3, r3, #128	@ 0x80
 8001ece:	672b      	str	r3, [r5, #112]	@ 0x70
 8001ed0:	6f2b      	ldr	r3, [r5, #112]	@ 0x70
 8001ed2:	f023 0304 	bic.w	r3, r3, #4
 8001ed6:	672b      	str	r3, [r5, #112]	@ 0x70
 8001ed8:	f7ff f996 	bl	8001208 <HAL_GetTick>
 8001edc:	4606      	mov	r6, r0
 8001ede:	6f2b      	ldr	r3, [r5, #112]	@ 0x70
 8001ee0:	0798      	lsls	r0, r3, #30
 8001ee2:	f57f aeae 	bpl.w	8001c42 <HAL_RCC_OscConfig+0xaa>
 8001ee6:	f7ff f98f 	bl	8001208 <HAL_GetTick>
 8001eea:	1b80      	subs	r0, r0, r6
 8001eec:	42b8      	cmp	r0, r7
 8001eee:	d9f6      	bls.n	8001ede <HAL_RCC_OscConfig+0x346>
 8001ef0:	e6d7      	b.n	8001ca2 <HAL_RCC_OscConfig+0x10a>
 8001ef2:	2b05      	cmp	r3, #5
 8001ef4:	d108      	bne.n	8001f08 <HAL_RCC_OscConfig+0x370>
 8001ef6:	6f2b      	ldr	r3, [r5, #112]	@ 0x70
 8001ef8:	f043 0304 	orr.w	r3, r3, #4
 8001efc:	672b      	str	r3, [r5, #112]	@ 0x70
 8001efe:	6f2b      	ldr	r3, [r5, #112]	@ 0x70
 8001f00:	f023 0380 	bic.w	r3, r3, #128	@ 0x80
 8001f04:	672b      	str	r3, [r5, #112]	@ 0x70
 8001f06:	e68e      	b.n	8001c26 <HAL_RCC_OscConfig+0x8e>
 8001f08:	2b85      	cmp	r3, #133	@ 0x85
 8001f0a:	6f2b      	ldr	r3, [r5, #112]	@ 0x70
 8001f0c:	d106      	bne.n	8001f1c <HAL_RCC_OscConfig+0x384>
 8001f0e:	f043 0304 	orr.w	r3, r3, #4
 8001f12:	672b      	str	r3, [r5, #112]	@ 0x70
 8001f14:	6f2b      	ldr	r3, [r5, #112]	@ 0x70
 8001f16:	f043 0380 	orr.w	r3, r3, #128	@ 0x80
 8001f1a:	e7f3      	b.n	8001f04 <HAL_RCC_OscConfig+0x36c>
 8001f1c:	f023 0301 	bic.w	r3, r3, #1
 8001f20:	672b      	str	r3, [r5, #112]	@ 0x70
 8001f22:	6f2b      	ldr	r3, [r5, #112]	@ 0x70
 8001f24:	f023 0304 	bic.w	r3, r3, #4
 8001f28:	672b      	str	r3, [r5, #112]	@ 0x70
 8001f2a:	6f2b      	ldr	r3, [r5, #112]	@ 0x70
 8001f2c:	f023 0380 	bic.w	r3, r3, #128	@ 0x80
 8001f30:	e67c      	b.n	8001c2c <HAL_RCC_OscConfig+0x94>
 8001f32:	f7ff f969 	bl	8001208 <HAL_GetTick>
 8001f36:	1b40      	subs	r0, r0, r5
 8001f38:	42b8      	cmp	r0, r7
 8001f3a:	f67f ae7e 	bls.w	8001c3a <HAL_RCC_OscConfig+0xa2>
 8001f3e:	e6b0      	b.n	8001ca2 <HAL_RCC_OscConfig+0x10a>
 8001f40:	4d40      	ldr	r5, [pc, #256]	@ (8002044 <HAL_RCC_OscConfig+0x4ac>)
 8001f42:	692b      	ldr	r3, [r5, #16]
 8001f44:	f003 0338 	and.w	r3, r3, #56	@ 0x38
 8001f48:	2b18      	cmp	r3, #24
 8001f4a:	d07d      	beq.n	8002048 <HAL_RCC_OscConfig+0x4b0>
 8001f4c:	682b      	ldr	r3, [r5, #0]
 8001f4e:	2902      	cmp	r1, #2
 8001f50:	f023 7380 	bic.w	r3, r3, #16777216	@ 0x1000000
 8001f54:	602b      	str	r3, [r5, #0]
 8001f56:	d167      	bne.n	8002028 <HAL_RCC_OscConfig+0x490>
 8001f58:	f7ff f956 	bl	8001208 <HAL_GetTick>
 8001f5c:	4606      	mov	r6, r0
 8001f5e:	682b      	ldr	r3, [r5, #0]
 8001f60:	0199      	lsls	r1, r3, #6
 8001f62:	d45b      	bmi.n	800201c <HAL_RCC_OscConfig+0x484>
 8001f64:	6aab      	ldr	r3, [r5, #40]	@ 0x28
 8001f66:	6aa2      	ldr	r2, [r4, #40]	@ 0x28
 8001f68:	f423 737c 	bic.w	r3, r3, #1008	@ 0x3f0
 8001f6c:	f023 0303 	bic.w	r3, r3, #3
 8001f70:	4313      	orrs	r3, r2
 8001f72:	6ae2      	ldr	r2, [r4, #44]	@ 0x2c
 8001f74:	ea43 1302 	orr.w	r3, r3, r2, lsl #4
 8001f78:	62ab      	str	r3, [r5, #40]	@ 0x28
 8001f7a:	6b63      	ldr	r3, [r4, #52]	@ 0x34
 8001f7c:	6ba2      	ldr	r2, [r4, #56]	@ 0x38
 8001f7e:	3b01      	subs	r3, #1
 8001f80:	3a01      	subs	r2, #1
 8001f82:	025b      	lsls	r3, r3, #9
 8001f84:	0412      	lsls	r2, r2, #16
 8001f86:	b29b      	uxth	r3, r3
 8001f88:	f402 02fe 	and.w	r2, r2, #8323072	@ 0x7f0000
 8001f8c:	4313      	orrs	r3, r2
 8001f8e:	6b22      	ldr	r2, [r4, #48]	@ 0x30
 8001f90:	3a01      	subs	r2, #1
 8001f92:	f3c2 0208 	ubfx	r2, r2, #0, #9
 8001f96:	4313      	orrs	r3, r2
 8001f98:	6be2      	ldr	r2, [r4, #60]	@ 0x3c
 8001f9a:	3a01      	subs	r2, #1
 8001f9c:	0612      	lsls	r2, r2, #24
 8001f9e:	f002 42fe 	and.w	r2, r2, #2130706432	@ 0x7f000000
 8001fa2:	4313      	orrs	r3, r2
 8001fa4:	632b      	str	r3, [r5, #48]	@ 0x30
 8001fa6:	6aeb      	ldr	r3, [r5, #44]	@ 0x2c
 8001fa8:	f023 0301 	bic.w	r3, r3, #1
 8001fac:	62eb      	str	r3, [r5, #44]	@ 0x2c
 8001fae:	6b6b      	ldr	r3, [r5, #52]	@ 0x34
 8001fb0:	6ca2      	ldr	r2, [r4, #72]	@ 0x48
 8001fb2:	f423 437f 	bic.w	r3, r3, #65280	@ 0xff00
 8001fb6:	f023 03f8 	bic.w	r3, r3, #248	@ 0xf8
 8001fba:	ea43 03c2 	orr.w	r3, r3, r2, lsl #3
 8001fbe:	636b      	str	r3, [r5, #52]	@ 0x34
 8001fc0:	6aeb      	ldr	r3, [r5, #44]	@ 0x2c
 8001fc2:	6c22      	ldr	r2, [r4, #64]	@ 0x40
 8001fc4:	f023 030c 	bic.w	r3, r3, #12
 8001fc8:	4313      	orrs	r3, r2
 8001fca:	62eb      	str	r3, [r5, #44]	@ 0x2c
 8001fcc:	6aeb      	ldr	r3, [r5, #44]	@ 0x2c
 8001fce:	6c62      	ldr	r2, [r4, #68]	@ 0x44
 8001fd0:	f023 0302 	bic.w	r3, r3, #2
 8001fd4:	4313      	orrs	r3, r2
 8001fd6:	62eb      	str	r3, [r5, #44]	@ 0x2c
 8001fd8:	6aeb      	ldr	r3, [r5, #44]	@ 0x2c
 8001fda:	f443 3380 	orr.w	r3, r3, #65536	@ 0x10000
 8001fde:	62eb      	str	r3, [r5, #44]	@ 0x2c
 8001fe0:	6aeb      	ldr	r3, [r5, #44]	@ 0x2c
 8001fe2:	f443 3300 	orr.w	r3, r3, #131072	@ 0x20000
 8001fe6:	62eb      	str	r3, [r5, #44]	@ 0x2c
 8001fe8:	6aeb      	ldr	r3, [r5, #44]	@ 0x2c
 8001fea:	f443 2380 	orr.w	r3, r3, #262144	@ 0x40000
 8001fee:	62eb      	str	r3, [r5, #44]	@ 0x2c
 8001ff0:	6aeb      	ldr	r3, [r5, #44]	@ 0x2c
 8001ff2:	f043 0301 	orr.w	r3, r3, #1
 8001ff6:	62eb      	str	r3, [r5, #44]	@ 0x2c
 8001ff8:	682b      	ldr	r3, [r5, #0]
 8001ffa:	f043 7380 	orr.w	r3, r3, #16777216	@ 0x1000000
 8001ffe:	602b      	str	r3, [r5, #0]
 8002000:	f7ff f902 	bl	8001208 <HAL_GetTick>
 8002004:	4d0f      	ldr	r5, [pc, #60]	@ (8002044 <HAL_RCC_OscConfig+0x4ac>)
 8002006:	4604      	mov	r4, r0
 8002008:	682b      	ldr	r3, [r5, #0]
 800200a:	019a      	lsls	r2, r3, #6
 800200c:	f53f ae1d 	bmi.w	8001c4a <HAL_RCC_OscConfig+0xb2>
 8002010:	f7ff f8fa 	bl	8001208 <HAL_GetTick>
 8002014:	1b00      	subs	r0, r0, r4
 8002016:	2802      	cmp	r0, #2
 8002018:	d9f6      	bls.n	8002008 <HAL_RCC_OscConfig+0x470>
 800201a:	e642      	b.n	8001ca2 <HAL_RCC_OscConfig+0x10a>
 800201c:	f7ff f8f4 	bl	8001208 <HAL_GetTick>
 8002020:	1b80      	subs	r0, r0, r6
 8002022:	2802      	cmp	r0, #2
 8002024:	d99b      	bls.n	8001f5e <HAL_RCC_OscConfig+0x3c6>
 8002026:	e63c      	b.n	8001ca2 <HAL_RCC_OscConfig+0x10a>
 8002028:	f7ff f8ee 	bl	8001208 <HAL_GetTick>
 800202c:	4604      	mov	r4, r0
 800202e:	682b      	ldr	r3, [r5, #0]
 8002030:	019b      	lsls	r3, r3, #6
 8002032:	f57f ae0a 	bpl.w	8001c4a <HAL_RCC_OscConfig+0xb2>
 8002036:	f7ff f8e7 	bl	8001208 <HAL_GetTick>
 800203a:	1b00      	subs	r0, r0, r4
 800203c:	2802      	cmp	r0, #2
 800203e:	d9f6      	bls.n	800202e <HAL_RCC_OscConfig+0x496>
 8002040:	e62f      	b.n	8001ca2 <HAL_RCC_OscConfig+0x10a>
 8002042:	bf00      	nop
 8002044:	58024400 	.word	0x58024400
 8002048:	2901      	cmp	r1, #1
 800204a:	6aaa      	ldr	r2, [r5, #40]	@ 0x28
 800204c:	6b2b      	ldr	r3, [r5, #48]	@ 0x30
 800204e:	f43f ae11 	beq.w	8001c74 <HAL_RCC_OscConfig+0xdc>
 8002052:	f002 0103 	and.w	r1, r2, #3
 8002056:	6aa0      	ldr	r0, [r4, #40]	@ 0x28
 8002058:	4281      	cmp	r1, r0
 800205a:	f47f ae0b 	bne.w	8001c74 <HAL_RCC_OscConfig+0xdc>
 800205e:	f3c2 1205 	ubfx	r2, r2, #4, #6
 8002062:	6ae1      	ldr	r1, [r4, #44]	@ 0x2c
 8002064:	428a      	cmp	r2, r1
 8002066:	f47f ae05 	bne.w	8001c74 <HAL_RCC_OscConfig+0xdc>
 800206a:	6b22      	ldr	r2, [r4, #48]	@ 0x30
 800206c:	f3c3 0108 	ubfx	r1, r3, #0, #9
 8002070:	3a01      	subs	r2, #1
 8002072:	4291      	cmp	r1, r2
 8002074:	f47f adfe 	bne.w	8001c74 <HAL_RCC_OscConfig+0xdc>
 8002078:	6b62      	ldr	r2, [r4, #52]	@ 0x34
 800207a:	f3c3 2146 	ubfx	r1, r3, #9, #7
 800207e:	3a01      	subs	r2, #1
 8002080:	4291      	cmp	r1, r2
 8002082:	f47f adf7 	bne.w	8001c74 <HAL_RCC_OscConfig+0xdc>
 8002086:	6ba2      	ldr	r2, [r4, #56]	@ 0x38
 8002088:	f3c3 4106 	ubfx	r1, r3, #16, #7
 800208c:	3a01      	subs	r2, #1
 800208e:	4291      	cmp	r1, r2
 8002090:	f47f adf0 	bne.w	8001c74 <HAL_RCC_OscConfig+0xdc>
 8002094:	6be2      	ldr	r2, [r4, #60]	@ 0x3c
 8002096:	f3c3 6306 	ubfx	r3, r3, #24, #7
 800209a:	3a01      	subs	r2, #1
 800209c:	4293      	cmp	r3, r2
 800209e:	f47f ade9 	bne.w	8001c74 <HAL_RCC_OscConfig+0xdc>
 80020a2:	6b6b      	ldr	r3, [r5, #52]	@ 0x34
 80020a4:	6ca2      	ldr	r2, [r4, #72]	@ 0x48
 80020a6:	f3c3 03cc 	ubfx	r3, r3, #3, #13
 80020aa:	429a      	cmp	r2, r3
 80020ac:	f43f adcd 	beq.w	8001c4a <HAL_RCC_OscConfig+0xb2>
 80020b0:	4d0c      	ldr	r5, [pc, #48]	@ (80020e4 <HAL_RCC_OscConfig+0x54c>)
 80020b2:	6aeb      	ldr	r3, [r5, #44]	@ 0x2c
 80020b4:	f023 0301 	bic.w	r3, r3, #1
 80020b8:	62eb      	str	r3, [r5, #44]	@ 0x2c
 80020ba:	f7ff f8a5 	bl	8001208 <HAL_GetTick>
 80020be:	4606      	mov	r6, r0
 80020c0:	f7ff f8a2 	bl	8001208 <HAL_GetTick>
 80020c4:	42b0      	cmp	r0, r6
 80020c6:	d0fb      	beq.n	80020c0 <HAL_RCC_OscConfig+0x528>
 80020c8:	6b6b      	ldr	r3, [r5, #52]	@ 0x34
 80020ca:	6ca2      	ldr	r2, [r4, #72]	@ 0x48
 80020cc:	f423 437f 	bic.w	r3, r3, #65280	@ 0xff00
 80020d0:	f023 03f8 	bic.w	r3, r3, #248	@ 0xf8
 80020d4:	ea43 03c2 	orr.w	r3, r3, r2, lsl #3
 80020d8:	636b      	str	r3, [r5, #52]	@ 0x34
 80020da:	6aeb      	ldr	r3, [r5, #44]	@ 0x2c
 80020dc:	f043 0301 	orr.w	r3, r3, #1
 80020e0:	62eb      	str	r3, [r5, #44]	@ 0x2c
 80020e2:	e5b2      	b.n	8001c4a <HAL_RCC_OscConfig+0xb2>
 80020e4:	58024400 	.word	0x58024400

080020e8 <HAL_RCC_GetSysClockFreq>:
 80020e8:	4b49      	ldr	r3, [pc, #292]	@ (8002210 <HAL_RCC_GetSysClockFreq+0x128>)
 80020ea:	691a      	ldr	r2, [r3, #16]
 80020ec:	f002 0238 	and.w	r2, r2, #56	@ 0x38
 80020f0:	2a10      	cmp	r2, #16
 80020f2:	b530      	push	{r4, r5, lr}
 80020f4:	f000 8088 	beq.w	8002208 <HAL_RCC_GetSysClockFreq+0x120>
 80020f8:	2a18      	cmp	r2, #24
 80020fa:	d00c      	beq.n	8002116 <HAL_RCC_GetSysClockFreq+0x2e>
 80020fc:	2a00      	cmp	r2, #0
 80020fe:	f040 8085 	bne.w	800220c <HAL_RCC_GetSysClockFreq+0x124>
 8002102:	681a      	ldr	r2, [r3, #0]
 8002104:	4843      	ldr	r0, [pc, #268]	@ (8002214 <HAL_RCC_GetSysClockFreq+0x12c>)
 8002106:	f012 0f20 	tst.w	r2, #32
 800210a:	d003      	beq.n	8002114 <HAL_RCC_GetSysClockFreq+0x2c>
 800210c:	681b      	ldr	r3, [r3, #0]
 800210e:	f3c3 03c1 	ubfx	r3, r3, #3, #2
 8002112:	40d8      	lsrs	r0, r3
 8002114:	bd30      	pop	{r4, r5, pc}
 8002116:	6a99      	ldr	r1, [r3, #40]	@ 0x28
 8002118:	6a9d      	ldr	r5, [r3, #40]	@ 0x28
 800211a:	6adc      	ldr	r4, [r3, #44]	@ 0x2c
 800211c:	f415 7f7c 	tst.w	r5, #1008	@ 0x3f0
 8002120:	f3c5 1005 	ubfx	r0, r5, #4, #6
 8002124:	6b5a      	ldr	r2, [r3, #52]	@ 0x34
 8002126:	d0f5      	beq.n	8002114 <HAL_RCC_GetSysClockFreq+0x2c>
 8002128:	f3c2 02cc 	ubfx	r2, r2, #3, #13
 800212c:	f004 0401 	and.w	r4, r4, #1
 8002130:	f001 0103 	and.w	r1, r1, #3
 8002134:	ee07 0a90 	vmov	s15, r0
 8002138:	4362      	muls	r2, r4
 800213a:	eeb7 6a00 	vmov.f32	s12, #112	@ 0x3f800000  1.0
 800213e:	2901      	cmp	r1, #1
 8002140:	eeb8 7ae7 	vcvt.f32.s32	s14, s15
 8002144:	ee06 2a90 	vmov	s13, r2
 8002148:	eefa 6ae9 	vcvt.f32.s32	s13, s13, #13
 800214c:	d04e      	beq.n	80021ec <HAL_RCC_GetSysClockFreq+0x104>
 800214e:	2902      	cmp	r1, #2
 8002150:	d03e      	beq.n	80021d0 <HAL_RCC_GetSysClockFreq+0xe8>
 8002152:	2900      	cmp	r1, #0
 8002154:	d14a      	bne.n	80021ec <HAL_RCC_GetSysClockFreq+0x104>
 8002156:	681a      	ldr	r2, [r3, #0]
 8002158:	0692      	lsls	r2, r2, #26
 800215a:	d527      	bpl.n	80021ac <HAL_RCC_GetSysClockFreq+0xc4>
 800215c:	6819      	ldr	r1, [r3, #0]
 800215e:	4a2d      	ldr	r2, [pc, #180]	@ (8002214 <HAL_RCC_GetSysClockFreq+0x12c>)
 8002160:	f3c1 01c1 	ubfx	r1, r1, #3, #2
 8002164:	6b1b      	ldr	r3, [r3, #48]	@ 0x30
 8002166:	40ca      	lsrs	r2, r1
 8002168:	f3c3 0308 	ubfx	r3, r3, #0, #9
 800216c:	ee07 2a90 	vmov	s15, r2
 8002170:	eef8 5ae7 	vcvt.f32.s32	s11, s15
 8002174:	eec5 7a87 	vdiv.f32	s15, s11, s14
 8002178:	ee07 3a10 	vmov	s14, r3
 800217c:	eeb8 7ac7 	vcvt.f32.s32	s14, s14
 8002180:	ee37 7a26 	vadd.f32	s14, s14, s13
 8002184:	ee37 7a06 	vadd.f32	s14, s14, s12
 8002188:	ee67 7a87 	vmul.f32	s15, s15, s14
 800218c:	4b20      	ldr	r3, [pc, #128]	@ (8002210 <HAL_RCC_GetSysClockFreq+0x128>)
 800218e:	6b1b      	ldr	r3, [r3, #48]	@ 0x30
 8002190:	f3c3 2346 	ubfx	r3, r3, #9, #7
 8002194:	3301      	adds	r3, #1
 8002196:	ee07 3a10 	vmov	s14, r3
 800219a:	eef8 6ac7 	vcvt.f32.s32	s13, s14
 800219e:	ee87 7aa6 	vdiv.f32	s14, s15, s13
 80021a2:	eefc 7ac7 	vcvt.u32.f32	s15, s14
 80021a6:	ee17 0a90 	vmov	r0, s15
 80021aa:	e7b3      	b.n	8002114 <HAL_RCC_GetSysClockFreq+0x2c>
 80021ac:	6b1b      	ldr	r3, [r3, #48]	@ 0x30
 80021ae:	f3c3 0308 	ubfx	r3, r3, #0, #9
 80021b2:	ee07 3a90 	vmov	s15, r3
 80021b6:	eef8 7ae7 	vcvt.f32.s32	s15, s15
 80021ba:	ee77 7aa6 	vadd.f32	s15, s15, s13
 80021be:	ee77 7a86 	vadd.f32	s15, s15, s12
 80021c2:	ed9f 6a15 	vldr	s12, [pc, #84]	@ 8002218 <HAL_RCC_GetSysClockFreq+0x130>
 80021c6:	eec6 6a07 	vdiv.f32	s13, s12, s14
 80021ca:	ee67 7aa6 	vmul.f32	s15, s15, s13
 80021ce:	e7dd      	b.n	800218c <HAL_RCC_GetSysClockFreq+0xa4>
 80021d0:	6b1b      	ldr	r3, [r3, #48]	@ 0x30
 80021d2:	f3c3 0308 	ubfx	r3, r3, #0, #9
 80021d6:	ee07 3a90 	vmov	s15, r3
 80021da:	eef8 7ae7 	vcvt.f32.s32	s15, s15
 80021de:	ee77 7aa6 	vadd.f32	s15, s15, s13
 80021e2:	ee77 7a86 	vadd.f32	s15, s15, s12
 80021e6:	ed9f 6a0d 	vldr	s12, [pc, #52]	@ 800221c <HAL_RCC_GetSysClockFreq+0x134>
 80021ea:	e7ec      	b.n	80021c6 <HAL_RCC_GetSysClockFreq+0xde>
 80021ec:	6b1b      	ldr	r3, [r3, #48]	@ 0x30
 80021ee:	f3c3 0308 	ubfx	r3, r3, #0, #9
 80021f2:	ee07 3a90 	vmov	s15, r3
 80021f6:	eef8 7ae7 	vcvt.f32.s32	s15, s15
 80021fa:	ee77 7aa6 	vadd.f32	s15, s15, s13
 80021fe:	ee77 7a86 	vadd.f32	s15, s15, s12
 8002202:	ed9f 6a07 	vldr	s12, [pc, #28]	@ 8002220 <HAL_RCC_GetSysClockFreq+0x138>
 8002206:	e7de      	b.n	80021c6 <HAL_RCC_GetSysClockFreq+0xde>
 8002208:	4806      	ldr	r0, [pc, #24]	@ (8002224 <HAL_RCC_GetSysClockFreq+0x13c>)
 800220a:	e783      	b.n	8002114 <HAL_RCC_GetSysClockFreq+0x2c>
 800220c:	4806      	ldr	r0, [pc, #24]	@ (8002228 <HAL_RCC_GetSysClockFreq+0x140>)
 800220e:	e781      	b.n	8002114 <HAL_RCC_GetSysClockFreq+0x2c>
 8002210:	58024400 	.word	0x58024400
 8002214:	03d09000 	.word	0x03d09000
 8002218:	4c742400 	.word	0x4c742400
 800221c:	4af42400 	.word	0x4af42400
 8002220:	4a742400 	.word	0x4a742400
 8002224:	007a1200 	.word	0x007a1200
 8002228:	003d0900 	.word	0x003d0900

0800222c <HAL_RCC_ClockConfig>:
 800222c:	e92d 41f0 	stmdb	sp!, {r4, r5, r6, r7, r8, lr}
 8002230:	460d      	mov	r5, r1
 8002232:	4604      	mov	r4, r0
 8002234:	b910      	cbnz	r0, 800223c <HAL_RCC_ClockConfig+0x10>
 8002236:	2001      	movs	r0, #1
 8002238:	e8bd 81f0 	ldmia.w	sp!, {r4, r5, r6, r7, r8, pc}
 800223c:	4a88      	ldr	r2, [pc, #544]	@ (8002460 <HAL_RCC_ClockConfig+0x234>)
 800223e:	6813      	ldr	r3, [r2, #0]
 8002240:	f003 030f 	and.w	r3, r3, #15
 8002244:	428b      	cmp	r3, r1
 8002246:	f0c0 8093 	bcc.w	8002370 <HAL_RCC_ClockConfig+0x144>
 800224a:	6823      	ldr	r3, [r4, #0]
 800224c:	075f      	lsls	r7, r3, #29
 800224e:	f100 809b 	bmi.w	8002388 <HAL_RCC_ClockConfig+0x15c>
 8002252:	071e      	lsls	r6, r3, #28
 8002254:	d50b      	bpl.n	800226e <HAL_RCC_ClockConfig+0x42>
 8002256:	4983      	ldr	r1, [pc, #524]	@ (8002464 <HAL_RCC_ClockConfig+0x238>)
 8002258:	6960      	ldr	r0, [r4, #20]
 800225a:	69ca      	ldr	r2, [r1, #28]
 800225c:	f002 0270 	and.w	r2, r2, #112	@ 0x70
 8002260:	4290      	cmp	r0, r2
 8002262:	d904      	bls.n	800226e <HAL_RCC_ClockConfig+0x42>
 8002264:	69ca      	ldr	r2, [r1, #28]
 8002266:	f022 0270 	bic.w	r2, r2, #112	@ 0x70
 800226a:	4302      	orrs	r2, r0
 800226c:	61ca      	str	r2, [r1, #28]
 800226e:	06d8      	lsls	r0, r3, #27
 8002270:	d50b      	bpl.n	800228a <HAL_RCC_ClockConfig+0x5e>
 8002272:	497c      	ldr	r1, [pc, #496]	@ (8002464 <HAL_RCC_ClockConfig+0x238>)
 8002274:	69a0      	ldr	r0, [r4, #24]
 8002276:	69ca      	ldr	r2, [r1, #28]
 8002278:	f402 62e0 	and.w	r2, r2, #1792	@ 0x700
 800227c:	4290      	cmp	r0, r2
 800227e:	d904      	bls.n	800228a <HAL_RCC_ClockConfig+0x5e>
 8002280:	69ca      	ldr	r2, [r1, #28]
 8002282:	f422 62e0 	bic.w	r2, r2, #1792	@ 0x700
 8002286:	4302      	orrs	r2, r0
 8002288:	61ca      	str	r2, [r1, #28]
 800228a:	0699      	lsls	r1, r3, #26
 800228c:	d50b      	bpl.n	80022a6 <HAL_RCC_ClockConfig+0x7a>
 800228e:	4975      	ldr	r1, [pc, #468]	@ (8002464 <HAL_RCC_ClockConfig+0x238>)
 8002290:	69e0      	ldr	r0, [r4, #28]
 8002292:	6a0a      	ldr	r2, [r1, #32]
 8002294:	f002 0270 	and.w	r2, r2, #112	@ 0x70
 8002298:	4290      	cmp	r0, r2
 800229a:	d904      	bls.n	80022a6 <HAL_RCC_ClockConfig+0x7a>
 800229c:	6a0a      	ldr	r2, [r1, #32]
 800229e:	f022 0270 	bic.w	r2, r2, #112	@ 0x70
 80022a2:	4302      	orrs	r2, r0
 80022a4:	620a      	str	r2, [r1, #32]
 80022a6:	079a      	lsls	r2, r3, #30
 80022a8:	d50b      	bpl.n	80022c2 <HAL_RCC_ClockConfig+0x96>
 80022aa:	496e      	ldr	r1, [pc, #440]	@ (8002464 <HAL_RCC_ClockConfig+0x238>)
 80022ac:	68e0      	ldr	r0, [r4, #12]
 80022ae:	698a      	ldr	r2, [r1, #24]
 80022b0:	f002 020f 	and.w	r2, r2, #15
 80022b4:	4290      	cmp	r0, r2
 80022b6:	d904      	bls.n	80022c2 <HAL_RCC_ClockConfig+0x96>
 80022b8:	698a      	ldr	r2, [r1, #24]
 80022ba:	f022 020f 	bic.w	r2, r2, #15
 80022be:	4302      	orrs	r2, r0
 80022c0:	618a      	str	r2, [r1, #24]
 80022c2:	07df      	lsls	r7, r3, #31
 80022c4:	d46e      	bmi.n	80023a4 <HAL_RCC_ClockConfig+0x178>
 80022c6:	6823      	ldr	r3, [r4, #0]
 80022c8:	079e      	lsls	r6, r3, #30
 80022ca:	f100 80a1 	bmi.w	8002410 <HAL_RCC_ClockConfig+0x1e4>
 80022ce:	4964      	ldr	r1, [pc, #400]	@ (8002460 <HAL_RCC_ClockConfig+0x234>)
 80022d0:	680a      	ldr	r2, [r1, #0]
 80022d2:	f002 020f 	and.w	r2, r2, #15
 80022d6:	42aa      	cmp	r2, r5
 80022d8:	f200 80a8 	bhi.w	800242c <HAL_RCC_ClockConfig+0x200>
 80022dc:	0758      	lsls	r0, r3, #29
 80022de:	f100 80b1 	bmi.w	8002444 <HAL_RCC_ClockConfig+0x218>
 80022e2:	0719      	lsls	r1, r3, #28
 80022e4:	d50b      	bpl.n	80022fe <HAL_RCC_ClockConfig+0xd2>
 80022e6:	495f      	ldr	r1, [pc, #380]	@ (8002464 <HAL_RCC_ClockConfig+0x238>)
 80022e8:	6960      	ldr	r0, [r4, #20]
 80022ea:	69ca      	ldr	r2, [r1, #28]
 80022ec:	f002 0270 	and.w	r2, r2, #112	@ 0x70
 80022f0:	4290      	cmp	r0, r2
 80022f2:	d204      	bcs.n	80022fe <HAL_RCC_ClockConfig+0xd2>
 80022f4:	69ca      	ldr	r2, [r1, #28]
 80022f6:	f022 0270 	bic.w	r2, r2, #112	@ 0x70
 80022fa:	4302      	orrs	r2, r0
 80022fc:	61ca      	str	r2, [r1, #28]
 80022fe:	06da      	lsls	r2, r3, #27
 8002300:	d50b      	bpl.n	800231a <HAL_RCC_ClockConfig+0xee>
 8002302:	4958      	ldr	r1, [pc, #352]	@ (8002464 <HAL_RCC_ClockConfig+0x238>)
 8002304:	69a0      	ldr	r0, [r4, #24]
 8002306:	69ca      	ldr	r2, [r1, #28]
 8002308:	f402 62e0 	and.w	r2, r2, #1792	@ 0x700
 800230c:	4290      	cmp	r0, r2
 800230e:	d204      	bcs.n	800231a <HAL_RCC_ClockConfig+0xee>
 8002310:	69ca      	ldr	r2, [r1, #28]
 8002312:	f422 62e0 	bic.w	r2, r2, #1792	@ 0x700
 8002316:	4302      	orrs	r2, r0
 8002318:	61ca      	str	r2, [r1, #28]
 800231a:	069b      	lsls	r3, r3, #26
 800231c:	d50b      	bpl.n	8002336 <HAL_RCC_ClockConfig+0x10a>
 800231e:	4a51      	ldr	r2, [pc, #324]	@ (8002464 <HAL_RCC_ClockConfig+0x238>)
 8002320:	69e1      	ldr	r1, [r4, #28]
 8002322:	6a13      	ldr	r3, [r2, #32]
 8002324:	f003 0370 	and.w	r3, r3, #112	@ 0x70
 8002328:	4299      	cmp	r1, r3
 800232a:	d204      	bcs.n	8002336 <HAL_RCC_ClockConfig+0x10a>
 800232c:	6a13      	ldr	r3, [r2, #32]
 800232e:	f023 0370 	bic.w	r3, r3, #112	@ 0x70
 8002332:	430b      	orrs	r3, r1
 8002334:	6213      	str	r3, [r2, #32]
 8002336:	f7ff fed7 	bl	80020e8 <HAL_RCC_GetSysClockFreq>
 800233a:	494a      	ldr	r1, [pc, #296]	@ (8002464 <HAL_RCC_ClockConfig+0x238>)
 800233c:	4a4a      	ldr	r2, [pc, #296]	@ (8002468 <HAL_RCC_ClockConfig+0x23c>)
 800233e:	698b      	ldr	r3, [r1, #24]
 8002340:	f3c3 2303 	ubfx	r3, r3, #8, #4
 8002344:	5cd3      	ldrb	r3, [r2, r3]
 8002346:	f003 031f 	and.w	r3, r3, #31
 800234a:	40d8      	lsrs	r0, r3
 800234c:	698b      	ldr	r3, [r1, #24]
 800234e:	f003 030f 	and.w	r3, r3, #15
 8002352:	5cd3      	ldrb	r3, [r2, r3]
 8002354:	4a45      	ldr	r2, [pc, #276]	@ (800246c <HAL_RCC_ClockConfig+0x240>)
 8002356:	f003 031f 	and.w	r3, r3, #31
 800235a:	fa20 f303 	lsr.w	r3, r0, r3
 800235e:	6013      	str	r3, [r2, #0]
 8002360:	4b43      	ldr	r3, [pc, #268]	@ (8002470 <HAL_RCC_ClockConfig+0x244>)
 8002362:	6018      	str	r0, [r3, #0]
 8002364:	4b43      	ldr	r3, [pc, #268]	@ (8002474 <HAL_RCC_ClockConfig+0x248>)
 8002366:	e8bd 41f0 	ldmia.w	sp!, {r4, r5, r6, r7, r8, lr}
 800236a:	6818      	ldr	r0, [r3, #0]
 800236c:	f7fe beec 	b.w	8001148 <HAL_InitTick>
 8002370:	6813      	ldr	r3, [r2, #0]
 8002372:	f023 030f 	bic.w	r3, r3, #15
 8002376:	430b      	orrs	r3, r1
 8002378:	6013      	str	r3, [r2, #0]
 800237a:	6813      	ldr	r3, [r2, #0]
 800237c:	f003 030f 	and.w	r3, r3, #15
 8002380:	428b      	cmp	r3, r1
 8002382:	f47f af58 	bne.w	8002236 <HAL_RCC_ClockConfig+0xa>
 8002386:	e760      	b.n	800224a <HAL_RCC_ClockConfig+0x1e>
 8002388:	4936      	ldr	r1, [pc, #216]	@ (8002464 <HAL_RCC_ClockConfig+0x238>)
 800238a:	6920      	ldr	r0, [r4, #16]
 800238c:	698a      	ldr	r2, [r1, #24]
 800238e:	f002 0270 	and.w	r2, r2, #112	@ 0x70
 8002392:	4290      	cmp	r0, r2
 8002394:	f67f af5d 	bls.w	8002252 <HAL_RCC_ClockConfig+0x26>
 8002398:	698a      	ldr	r2, [r1, #24]
 800239a:	f022 0270 	bic.w	r2, r2, #112	@ 0x70
 800239e:	4302      	orrs	r2, r0
 80023a0:	618a      	str	r2, [r1, #24]
 80023a2:	e756      	b.n	8002252 <HAL_RCC_ClockConfig+0x26>
 80023a4:	4b2f      	ldr	r3, [pc, #188]	@ (8002464 <HAL_RCC_ClockConfig+0x238>)
 80023a6:	68a1      	ldr	r1, [r4, #8]
 80023a8:	699a      	ldr	r2, [r3, #24]
 80023aa:	f422 6270 	bic.w	r2, r2, #3840	@ 0xf00
 80023ae:	430a      	orrs	r2, r1
 80023b0:	619a      	str	r2, [r3, #24]
 80023b2:	6861      	ldr	r1, [r4, #4]
 80023b4:	681a      	ldr	r2, [r3, #0]
 80023b6:	2902      	cmp	r1, #2
 80023b8:	d11d      	bne.n	80023f6 <HAL_RCC_ClockConfig+0x1ca>
 80023ba:	f412 3f00 	tst.w	r2, #131072	@ 0x20000
 80023be:	f43f af3a 	beq.w	8002236 <HAL_RCC_ClockConfig+0xa>
 80023c2:	691a      	ldr	r2, [r3, #16]
 80023c4:	f241 3888 	movw	r8, #5000	@ 0x1388
 80023c8:	4f26      	ldr	r7, [pc, #152]	@ (8002464 <HAL_RCC_ClockConfig+0x238>)
 80023ca:	f022 0207 	bic.w	r2, r2, #7
 80023ce:	430a      	orrs	r2, r1
 80023d0:	611a      	str	r2, [r3, #16]
 80023d2:	f7fe ff19 	bl	8001208 <HAL_GetTick>
 80023d6:	4606      	mov	r6, r0
 80023d8:	693b      	ldr	r3, [r7, #16]
 80023da:	6862      	ldr	r2, [r4, #4]
 80023dc:	f003 0338 	and.w	r3, r3, #56	@ 0x38
 80023e0:	ebb3 0fc2 	cmp.w	r3, r2, lsl #3
 80023e4:	f43f af6f 	beq.w	80022c6 <HAL_RCC_ClockConfig+0x9a>
 80023e8:	f7fe ff0e 	bl	8001208 <HAL_GetTick>
 80023ec:	1b80      	subs	r0, r0, r6
 80023ee:	4540      	cmp	r0, r8
 80023f0:	d9f2      	bls.n	80023d8 <HAL_RCC_ClockConfig+0x1ac>
 80023f2:	2003      	movs	r0, #3
 80023f4:	e720      	b.n	8002238 <HAL_RCC_ClockConfig+0xc>
 80023f6:	2903      	cmp	r1, #3
 80023f8:	d102      	bne.n	8002400 <HAL_RCC_ClockConfig+0x1d4>
 80023fa:	f012 7f00 	tst.w	r2, #33554432	@ 0x2000000
 80023fe:	e7de      	b.n	80023be <HAL_RCC_ClockConfig+0x192>
 8002400:	2901      	cmp	r1, #1
 8002402:	d102      	bne.n	800240a <HAL_RCC_ClockConfig+0x1de>
 8002404:	f412 7f80 	tst.w	r2, #256	@ 0x100
 8002408:	e7d9      	b.n	80023be <HAL_RCC_ClockConfig+0x192>
 800240a:	f012 0f04 	tst.w	r2, #4
 800240e:	e7d6      	b.n	80023be <HAL_RCC_ClockConfig+0x192>
 8002410:	4914      	ldr	r1, [pc, #80]	@ (8002464 <HAL_RCC_ClockConfig+0x238>)
 8002412:	68e0      	ldr	r0, [r4, #12]
 8002414:	698a      	ldr	r2, [r1, #24]
 8002416:	f002 020f 	and.w	r2, r2, #15
 800241a:	4290      	cmp	r0, r2
 800241c:	f4bf af57 	bcs.w	80022ce <HAL_RCC_ClockConfig+0xa2>
 8002420:	698a      	ldr	r2, [r1, #24]
 8002422:	f022 020f 	bic.w	r2, r2, #15
 8002426:	4302      	orrs	r2, r0
 8002428:	618a      	str	r2, [r1, #24]
 800242a:	e750      	b.n	80022ce <HAL_RCC_ClockConfig+0xa2>
 800242c:	680a      	ldr	r2, [r1, #0]
 800242e:	f022 020f 	bic.w	r2, r2, #15
 8002432:	432a      	orrs	r2, r5
 8002434:	600a      	str	r2, [r1, #0]
 8002436:	680a      	ldr	r2, [r1, #0]
 8002438:	f002 020f 	and.w	r2, r2, #15
 800243c:	42aa      	cmp	r2, r5
 800243e:	f47f aefa 	bne.w	8002236 <HAL_RCC_ClockConfig+0xa>
 8002442:	e74b      	b.n	80022dc <HAL_RCC_ClockConfig+0xb0>
 8002444:	4907      	ldr	r1, [pc, #28]	@ (8002464 <HAL_RCC_ClockConfig+0x238>)
 8002446:	6920      	ldr	r0, [r4, #16]
 8002448:	698a      	ldr	r2, [r1, #24]
 800244a:	f002 0270 	and.w	r2, r2, #112	@ 0x70
 800244e:	4290      	cmp	r0, r2
 8002450:	f4bf af47 	bcs.w	80022e2 <HAL_RCC_ClockConfig+0xb6>
 8002454:	698a      	ldr	r2, [r1, #24]
 8002456:	f022 0270 	bic.w	r2, r2, #112	@ 0x70
 800245a:	4302      	orrs	r2, r0
 800245c:	618a      	str	r2, [r1, #24]
 800245e:	e740      	b.n	80022e2 <HAL_RCC_ClockConfig+0xb6>
 8002460:	52002000 	.word	0x52002000
 8002464:	58024400 	.word	0x58024400
 8002468:	08004700 	.word	0x08004700
 800246c:	24000000 	.word	0x24000000
 8002470:	24000004 	.word	0x24000004
 8002474:	24000010 	.word	0x24000010

08002478 <HAL_RCC_GetHCLKFreq>:
 8002478:	b508      	push	{r3, lr}
 800247a:	f7ff fe35 	bl	80020e8 <HAL_RCC_GetSysClockFreq>
 800247e:	4a0b      	ldr	r2, [pc, #44]	@ (80024ac <HAL_RCC_GetHCLKFreq+0x34>)
 8002480:	490b      	ldr	r1, [pc, #44]	@ (80024b0 <HAL_RCC_GetHCLKFreq+0x38>)
 8002482:	6993      	ldr	r3, [r2, #24]
 8002484:	6992      	ldr	r2, [r2, #24]
 8002486:	f3c3 2303 	ubfx	r3, r3, #8, #4
 800248a:	f002 020f 	and.w	r2, r2, #15
 800248e:	5ccb      	ldrb	r3, [r1, r3]
 8002490:	f003 031f 	and.w	r3, r3, #31
 8002494:	fa20 f303 	lsr.w	r3, r0, r3
 8002498:	5c88      	ldrb	r0, [r1, r2]
 800249a:	4a06      	ldr	r2, [pc, #24]	@ (80024b4 <HAL_RCC_GetHCLKFreq+0x3c>)
 800249c:	f000 001f 	and.w	r0, r0, #31
 80024a0:	fa23 f000 	lsr.w	r0, r3, r0
 80024a4:	6010      	str	r0, [r2, #0]
 80024a6:	4a04      	ldr	r2, [pc, #16]	@ (80024b8 <HAL_RCC_GetHCLKFreq+0x40>)
 80024a8:	6013      	str	r3, [r2, #0]
 80024aa:	bd08      	pop	{r3, pc}
 80024ac:	58024400 	.word	0x58024400
 80024b0:	08004700 	.word	0x08004700
 80024b4:	24000000 	.word	0x24000000
 80024b8:	24000004 	.word	0x24000004

080024bc <HAL_RCC_GetPCLK1Freq>:
 80024bc:	b508      	push	{r3, lr}
 80024be:	f7ff ffdb 	bl	8002478 <HAL_RCC_GetHCLKFreq>
 80024c2:	4b05      	ldr	r3, [pc, #20]	@ (80024d8 <HAL_RCC_GetPCLK1Freq+0x1c>)
 80024c4:	4a05      	ldr	r2, [pc, #20]	@ (80024dc <HAL_RCC_GetPCLK1Freq+0x20>)
 80024c6:	69db      	ldr	r3, [r3, #28]
 80024c8:	f3c3 1302 	ubfx	r3, r3, #4, #3
 80024cc:	5cd3      	ldrb	r3, [r2, r3]
 80024ce:	f003 031f 	and.w	r3, r3, #31
 80024d2:	40d8      	lsrs	r0, r3
 80024d4:	bd08      	pop	{r3, pc}
 80024d6:	bf00      	nop
 80024d8:	58024400 	.word	0x58024400
 80024dc:	08004700 	.word	0x08004700

080024e0 <HAL_RCC_GetPCLK2Freq>:
 80024e0:	b508      	push	{r3, lr}
 80024e2:	f7ff ffc9 	bl	8002478 <HAL_RCC_GetHCLKFreq>
 80024e6:	4b05      	ldr	r3, [pc, #20]	@ (80024fc <HAL_RCC_GetPCLK2Freq+0x1c>)
 80024e8:	4a05      	ldr	r2, [pc, #20]	@ (8002500 <HAL_RCC_GetPCLK2Freq+0x20>)
 80024ea:	69db      	ldr	r3, [r3, #28]
 80024ec:	f3c3 2302 	ubfx	r3, r3, #8, #3
 80024f0:	5cd3      	ldrb	r3, [r2, r3]
 80024f2:	f003 031f 	and.w	r3, r3, #31
 80024f6:	40d8      	lsrs	r0, r3
 80024f8:	bd08      	pop	{r3, pc}
 80024fa:	bf00      	nop
 80024fc:	58024400 	.word	0x58024400
 8002500:	08004700 	.word	0x08004700

08002504 <RCCEx_PLL2_Config>:
 8002504:	b5f8      	push	{r3, r4, r5, r6, r7, lr}
 8002506:	4c3a      	ldr	r4, [pc, #232]	@ (80025f0 <RCCEx_PLL2_Config+0xec>)
 8002508:	4606      	mov	r6, r0
 800250a:	460d      	mov	r5, r1
 800250c:	6aa3      	ldr	r3, [r4, #40]	@ 0x28
 800250e:	f003 0303 	and.w	r3, r3, #3
 8002512:	2b03      	cmp	r3, #3
 8002514:	d069      	beq.n	80025ea <RCCEx_PLL2_Config+0xe6>
 8002516:	6823      	ldr	r3, [r4, #0]
 8002518:	f023 6380 	bic.w	r3, r3, #67108864	@ 0x4000000
 800251c:	6023      	str	r3, [r4, #0]
 800251e:	f7fe fe73 	bl	8001208 <HAL_GetTick>
 8002522:	4607      	mov	r7, r0
 8002524:	6823      	ldr	r3, [r4, #0]
 8002526:	011a      	lsls	r2, r3, #4
 8002528:	d44b      	bmi.n	80025c2 <RCCEx_PLL2_Config+0xbe>
 800252a:	6aa3      	ldr	r3, [r4, #40]	@ 0x28
 800252c:	6832      	ldr	r2, [r6, #0]
 800252e:	f423 337c 	bic.w	r3, r3, #258048	@ 0x3f000
 8002532:	ea43 3302 	orr.w	r3, r3, r2, lsl #12
 8002536:	62a3      	str	r3, [r4, #40]	@ 0x28
 8002538:	68b3      	ldr	r3, [r6, #8]
 800253a:	68f2      	ldr	r2, [r6, #12]
 800253c:	3b01      	subs	r3, #1
 800253e:	3a01      	subs	r2, #1
 8002540:	025b      	lsls	r3, r3, #9
 8002542:	0412      	lsls	r2, r2, #16
 8002544:	b29b      	uxth	r3, r3
 8002546:	f402 02fe 	and.w	r2, r2, #8323072	@ 0x7f0000
 800254a:	4313      	orrs	r3, r2
 800254c:	6872      	ldr	r2, [r6, #4]
 800254e:	3a01      	subs	r2, #1
 8002550:	f3c2 0208 	ubfx	r2, r2, #0, #9
 8002554:	4313      	orrs	r3, r2
 8002556:	6932      	ldr	r2, [r6, #16]
 8002558:	3a01      	subs	r2, #1
 800255a:	0612      	lsls	r2, r2, #24
 800255c:	f002 42fe 	and.w	r2, r2, #2130706432	@ 0x7f000000
 8002560:	4313      	orrs	r3, r2
 8002562:	63a3      	str	r3, [r4, #56]	@ 0x38
 8002564:	6ae3      	ldr	r3, [r4, #44]	@ 0x2c
 8002566:	6972      	ldr	r2, [r6, #20]
 8002568:	f023 03c0 	bic.w	r3, r3, #192	@ 0xc0
 800256c:	4313      	orrs	r3, r2
 800256e:	62e3      	str	r3, [r4, #44]	@ 0x2c
 8002570:	6ae3      	ldr	r3, [r4, #44]	@ 0x2c
 8002572:	69b2      	ldr	r2, [r6, #24]
 8002574:	f023 0320 	bic.w	r3, r3, #32
 8002578:	4313      	orrs	r3, r2
 800257a:	62e3      	str	r3, [r4, #44]	@ 0x2c
 800257c:	6ae3      	ldr	r3, [r4, #44]	@ 0x2c
 800257e:	f023 0310 	bic.w	r3, r3, #16
 8002582:	62e3      	str	r3, [r4, #44]	@ 0x2c
 8002584:	6be3      	ldr	r3, [r4, #60]	@ 0x3c
 8002586:	69f2      	ldr	r2, [r6, #28]
 8002588:	f423 437f 	bic.w	r3, r3, #65280	@ 0xff00
 800258c:	f023 03f8 	bic.w	r3, r3, #248	@ 0xf8
 8002590:	ea43 03c2 	orr.w	r3, r3, r2, lsl #3
 8002594:	63e3      	str	r3, [r4, #60]	@ 0x3c
 8002596:	6ae3      	ldr	r3, [r4, #44]	@ 0x2c
 8002598:	f043 0310 	orr.w	r3, r3, #16
 800259c:	62e3      	str	r3, [r4, #44]	@ 0x2c
 800259e:	6ae3      	ldr	r3, [r4, #44]	@ 0x2c
 80025a0:	b9b5      	cbnz	r5, 80025d0 <RCCEx_PLL2_Config+0xcc>
 80025a2:	f443 2300 	orr.w	r3, r3, #524288	@ 0x80000
 80025a6:	62e3      	str	r3, [r4, #44]	@ 0x2c
 80025a8:	4c11      	ldr	r4, [pc, #68]	@ (80025f0 <RCCEx_PLL2_Config+0xec>)
 80025aa:	6823      	ldr	r3, [r4, #0]
 80025ac:	f043 6380 	orr.w	r3, r3, #67108864	@ 0x4000000
 80025b0:	6023      	str	r3, [r4, #0]
 80025b2:	f7fe fe29 	bl	8001208 <HAL_GetTick>
 80025b6:	4605      	mov	r5, r0
 80025b8:	6823      	ldr	r3, [r4, #0]
 80025ba:	011b      	lsls	r3, r3, #4
 80025bc:	d50f      	bpl.n	80025de <RCCEx_PLL2_Config+0xda>
 80025be:	2000      	movs	r0, #0
 80025c0:	e005      	b.n	80025ce <RCCEx_PLL2_Config+0xca>
 80025c2:	f7fe fe21 	bl	8001208 <HAL_GetTick>
 80025c6:	1bc0      	subs	r0, r0, r7
 80025c8:	2802      	cmp	r0, #2
 80025ca:	d9ab      	bls.n	8002524 <RCCEx_PLL2_Config+0x20>
 80025cc:	2003      	movs	r0, #3
 80025ce:	bdf8      	pop	{r3, r4, r5, r6, r7, pc}
 80025d0:	2d01      	cmp	r5, #1
 80025d2:	bf0c      	ite	eq
 80025d4:	f443 1380 	orreq.w	r3, r3, #1048576	@ 0x100000
 80025d8:	f443 1300 	orrne.w	r3, r3, #2097152	@ 0x200000
 80025dc:	e7e3      	b.n	80025a6 <RCCEx_PLL2_Config+0xa2>
 80025de:	f7fe fe13 	bl	8001208 <HAL_GetTick>
 80025e2:	1b40      	subs	r0, r0, r5
 80025e4:	2802      	cmp	r0, #2
 80025e6:	d9e7      	bls.n	80025b8 <RCCEx_PLL2_Config+0xb4>
 80025e8:	e7f0      	b.n	80025cc <RCCEx_PLL2_Config+0xc8>
 80025ea:	2001      	movs	r0, #1
 80025ec:	e7ef      	b.n	80025ce <RCCEx_PLL2_Config+0xca>
 80025ee:	bf00      	nop
 80025f0:	58024400 	.word	0x58024400

080025f4 <RCCEx_PLL3_Config>:
 80025f4:	b5f8      	push	{r3, r4, r5, r6, r7, lr}
 80025f6:	4c3a      	ldr	r4, [pc, #232]	@ (80026e0 <RCCEx_PLL3_Config+0xec>)
 80025f8:	4606      	mov	r6, r0
 80025fa:	460d      	mov	r5, r1
 80025fc:	6aa3      	ldr	r3, [r4, #40]	@ 0x28
 80025fe:	f003 0303 	and.w	r3, r3, #3
 8002602:	2b03      	cmp	r3, #3
 8002604:	d069      	beq.n	80026da <RCCEx_PLL3_Config+0xe6>
 8002606:	6823      	ldr	r3, [r4, #0]
 8002608:	f023 5380 	bic.w	r3, r3, #268435456	@ 0x10000000
 800260c:	6023      	str	r3, [r4, #0]
 800260e:	f7fe fdfb 	bl	8001208 <HAL_GetTick>
 8002612:	4607      	mov	r7, r0
 8002614:	6823      	ldr	r3, [r4, #0]
 8002616:	009a      	lsls	r2, r3, #2
 8002618:	d44b      	bmi.n	80026b2 <RCCEx_PLL3_Config+0xbe>
 800261a:	6aa3      	ldr	r3, [r4, #40]	@ 0x28
 800261c:	6832      	ldr	r2, [r6, #0]
 800261e:	f023 737c 	bic.w	r3, r3, #66060288	@ 0x3f00000
 8002622:	ea43 5302 	orr.w	r3, r3, r2, lsl #20
 8002626:	62a3      	str	r3, [r4, #40]	@ 0x28
 8002628:	68b3      	ldr	r3, [r6, #8]
 800262a:	68f2      	ldr	r2, [r6, #12]
 800262c:	3b01      	subs	r3, #1
 800262e:	3a01      	subs	r2, #1
 8002630:	025b      	lsls	r3, r3, #9
 8002632:	0412      	lsls	r2, r2, #16
 8002634:	b29b      	uxth	r3, r3
 8002636:	f402 02fe 	and.w	r2, r2, #8323072	@ 0x7f0000
 800263a:	4313      	orrs	r3, r2
 800263c:	6872      	ldr	r2, [r6, #4]
 800263e:	3a01      	subs	r2, #1
 8002640:	f3c2 0208 	ubfx	r2, r2, #0, #9
 8002644:	4313      	orrs	r3, r2
 8002646:	6932      	ldr	r2, [r6, #16]
 8002648:	3a01      	subs	r2, #1
 800264a:	0612      	lsls	r2, r2, #24
 800264c:	f002 42fe 	and.w	r2, r2, #2130706432	@ 0x7f000000
 8002650:	4313      	orrs	r3, r2
 8002652:	6423      	str	r3, [r4, #64]	@ 0x40
 8002654:	6ae3      	ldr	r3, [r4, #44]	@ 0x2c
 8002656:	6972      	ldr	r2, [r6, #20]
 8002658:	f423 6340 	bic.w	r3, r3, #3072	@ 0xc00
 800265c:	4313      	orrs	r3, r2
 800265e:	62e3      	str	r3, [r4, #44]	@ 0x2c
 8002660:	6ae3      	ldr	r3, [r4, #44]	@ 0x2c
 8002662:	69b2      	ldr	r2, [r6, #24]
 8002664:	f423 7300 	bic.w	r3, r3, #512	@ 0x200
 8002668:	4313      	orrs	r3, r2
 800266a:	62e3      	str	r3, [r4, #44]	@ 0x2c
 800266c:	6ae3      	ldr	r3, [r4, #44]	@ 0x2c
 800266e:	f423 7380 	bic.w	r3, r3, #256	@ 0x100
 8002672:	62e3      	str	r3, [r4, #44]	@ 0x2c
 8002674:	6c63      	ldr	r3, [r4, #68]	@ 0x44
 8002676:	69f2      	ldr	r2, [r6, #28]
 8002678:	f423 437f 	bic.w	r3, r3, #65280	@ 0xff00
 800267c:	f023 03f8 	bic.w	r3, r3, #248	@ 0xf8
 8002680:	ea43 03c2 	orr.w	r3, r3, r2, lsl #3
 8002684:	6463      	str	r3, [r4, #68]	@ 0x44
 8002686:	6ae3      	ldr	r3, [r4, #44]	@ 0x2c
 8002688:	f443 7380 	orr.w	r3, r3, #256	@ 0x100
 800268c:	62e3      	str	r3, [r4, #44]	@ 0x2c
 800268e:	6ae3      	ldr	r3, [r4, #44]	@ 0x2c
 8002690:	b9b5      	cbnz	r5, 80026c0 <RCCEx_PLL3_Config+0xcc>
 8002692:	f443 0380 	orr.w	r3, r3, #4194304	@ 0x400000
 8002696:	62e3      	str	r3, [r4, #44]	@ 0x2c
 8002698:	4c11      	ldr	r4, [pc, #68]	@ (80026e0 <RCCEx_PLL3_Config+0xec>)
 800269a:	6823      	ldr	r3, [r4, #0]
 800269c:	f043 5380 	orr.w	r3, r3, #268435456	@ 0x10000000
 80026a0:	6023      	str	r3, [r4, #0]
 80026a2:	f7fe fdb1 	bl	8001208 <HAL_GetTick>
 80026a6:	4605      	mov	r5, r0
 80026a8:	6823      	ldr	r3, [r4, #0]
 80026aa:	009b      	lsls	r3, r3, #2
 80026ac:	d50f      	bpl.n	80026ce <RCCEx_PLL3_Config+0xda>
 80026ae:	2000      	movs	r0, #0
 80026b0:	e005      	b.n	80026be <RCCEx_PLL3_Config+0xca>
 80026b2:	f7fe fda9 	bl	8001208 <HAL_GetTick>
 80026b6:	1bc0      	subs	r0, r0, r7
 80026b8:	2802      	cmp	r0, #2
 80026ba:	d9ab      	bls.n	8002614 <RCCEx_PLL3_Config+0x20>
 80026bc:	2003      	movs	r0, #3
 80026be:	bdf8      	pop	{r3, r4, r5, r6, r7, pc}
 80026c0:	2d01      	cmp	r5, #1
 80026c2:	bf0c      	ite	eq
 80026c4:	f443 0300 	orreq.w	r3, r3, #8388608	@ 0x800000
 80026c8:	f043 7380 	orrne.w	r3, r3, #16777216	@ 0x1000000
 80026cc:	e7e3      	b.n	8002696 <RCCEx_PLL3_Config+0xa2>
 80026ce:	f7fe fd9b 	bl	8001208 <HAL_GetTick>
 80026d2:	1b40      	subs	r0, r0, r5
 80026d4:	2802      	cmp	r0, #2
 80026d6:	d9e7      	bls.n	80026a8 <RCCEx_PLL3_Config+0xb4>
 80026d8:	e7f0      	b.n	80026bc <RCCEx_PLL3_Config+0xc8>
 80026da:	2001      	movs	r0, #1
 80026dc:	e7ef      	b.n	80026be <RCCEx_PLL3_Config+0xca>
 80026de:	bf00      	nop
 80026e0:	58024400 	.word	0x58024400

080026e4 <HAL_RCCEx_PeriphCLKConfig>:
 80026e4:	e92d 43f8 	stmdb	sp!, {r3, r4, r5, r6, r7, r8, r9, lr}
 80026e8:	6803      	ldr	r3, [r0, #0]
 80026ea:	4605      	mov	r5, r0
 80026ec:	0119      	lsls	r1, r3, #4
 80026ee:	d51e      	bpl.n	800272e <HAL_RCCEx_PeriphCLKConfig+0x4a>
 80026f0:	6ec3      	ldr	r3, [r0, #108]	@ 0x6c
 80026f2:	f5b3 1f00 	cmp.w	r3, #2097152	@ 0x200000
 80026f6:	d02a      	beq.n	800274e <HAL_RCCEx_PeriphCLKConfig+0x6a>
 80026f8:	d80f      	bhi.n	800271a <HAL_RCCEx_PeriphCLKConfig+0x36>
 80026fa:	b1d3      	cbz	r3, 8002732 <HAL_RCCEx_PeriphCLKConfig+0x4e>
 80026fc:	f5b3 1f80 	cmp.w	r3, #1048576	@ 0x100000
 8002700:	d01d      	beq.n	800273e <HAL_RCCEx_PeriphCLKConfig+0x5a>
 8002702:	2601      	movs	r6, #1
 8002704:	682b      	ldr	r3, [r5, #0]
 8002706:	05da      	lsls	r2, r3, #23
 8002708:	d54f      	bpl.n	80027aa <HAL_RCCEx_PeriphCLKConfig+0xc6>
 800270a:	6dab      	ldr	r3, [r5, #88]	@ 0x58
 800270c:	2b04      	cmp	r3, #4
 800270e:	d84b      	bhi.n	80027a8 <HAL_RCCEx_PeriphCLKConfig+0xc4>
 8002710:	e8df f003 	tbb	[pc, r3]
 8002714:	27443d22 	.word	0x27443d22
 8002718:	27          	.byte	0x27
 8002719:	00          	.byte	0x00
 800271a:	f5b3 1f40 	cmp.w	r3, #3145728	@ 0x300000
 800271e:	d1f0      	bne.n	8002702 <HAL_RCCEx_PeriphCLKConfig+0x1e>
 8002720:	4a98      	ldr	r2, [pc, #608]	@ (8002984 <HAL_RCCEx_PeriphCLKConfig+0x2a0>)
 8002722:	6ee9      	ldr	r1, [r5, #108]	@ 0x6c
 8002724:	6d13      	ldr	r3, [r2, #80]	@ 0x50
 8002726:	f423 1340 	bic.w	r3, r3, #3145728	@ 0x300000
 800272a:	430b      	orrs	r3, r1
 800272c:	6513      	str	r3, [r2, #80]	@ 0x50
 800272e:	2600      	movs	r6, #0
 8002730:	e7e8      	b.n	8002704 <HAL_RCCEx_PeriphCLKConfig+0x20>
 8002732:	4a94      	ldr	r2, [pc, #592]	@ (8002984 <HAL_RCCEx_PeriphCLKConfig+0x2a0>)
 8002734:	6ad3      	ldr	r3, [r2, #44]	@ 0x2c
 8002736:	f443 3300 	orr.w	r3, r3, #131072	@ 0x20000
 800273a:	62d3      	str	r3, [r2, #44]	@ 0x2c
 800273c:	e7f0      	b.n	8002720 <HAL_RCCEx_PeriphCLKConfig+0x3c>
 800273e:	2102      	movs	r1, #2
 8002740:	3008      	adds	r0, #8
 8002742:	f7ff fedf 	bl	8002504 <RCCEx_PLL2_Config>
 8002746:	4606      	mov	r6, r0
 8002748:	2800      	cmp	r0, #0
 800274a:	d1db      	bne.n	8002704 <HAL_RCCEx_PeriphCLKConfig+0x20>
 800274c:	e7e8      	b.n	8002720 <HAL_RCCEx_PeriphCLKConfig+0x3c>
 800274e:	2102      	movs	r1, #2
 8002750:	3028      	adds	r0, #40	@ 0x28
 8002752:	f7ff ff4f 	bl	80025f4 <RCCEx_PLL3_Config>
 8002756:	e7f6      	b.n	8002746 <HAL_RCCEx_PeriphCLKConfig+0x62>
 8002758:	4a8a      	ldr	r2, [pc, #552]	@ (8002984 <HAL_RCCEx_PeriphCLKConfig+0x2a0>)
 800275a:	6ad3      	ldr	r3, [r2, #44]	@ 0x2c
 800275c:	f443 3300 	orr.w	r3, r3, #131072	@ 0x20000
 8002760:	62d3      	str	r3, [r2, #44]	@ 0x2c
 8002762:	4634      	mov	r4, r6
 8002764:	bb1c      	cbnz	r4, 80027ae <HAL_RCCEx_PeriphCLKConfig+0xca>
 8002766:	4a87      	ldr	r2, [pc, #540]	@ (8002984 <HAL_RCCEx_PeriphCLKConfig+0x2a0>)
 8002768:	6da9      	ldr	r1, [r5, #88]	@ 0x58
 800276a:	6d13      	ldr	r3, [r2, #80]	@ 0x50
 800276c:	f023 0307 	bic.w	r3, r3, #7
 8002770:	430b      	orrs	r3, r1
 8002772:	6513      	str	r3, [r2, #80]	@ 0x50
 8002774:	682b      	ldr	r3, [r5, #0]
 8002776:	059b      	lsls	r3, r3, #22
 8002778:	d52a      	bpl.n	80027d0 <HAL_RCCEx_PeriphCLKConfig+0xec>
 800277a:	6deb      	ldr	r3, [r5, #92]	@ 0x5c
 800277c:	2b80      	cmp	r3, #128	@ 0x80
 800277e:	d044      	beq.n	800280a <HAL_RCCEx_PeriphCLKConfig+0x126>
 8002780:	d817      	bhi.n	80027b2 <HAL_RCCEx_PeriphCLKConfig+0xce>
 8002782:	b3ab      	cbz	r3, 80027f0 <HAL_RCCEx_PeriphCLKConfig+0x10c>
 8002784:	2b40      	cmp	r3, #64	@ 0x40
 8002786:	d039      	beq.n	80027fc <HAL_RCCEx_PeriphCLKConfig+0x118>
 8002788:	2601      	movs	r6, #1
 800278a:	4634      	mov	r4, r6
 800278c:	e020      	b.n	80027d0 <HAL_RCCEx_PeriphCLKConfig+0xec>
 800278e:	2100      	movs	r1, #0
 8002790:	f105 0008 	add.w	r0, r5, #8
 8002794:	f7ff feb6 	bl	8002504 <RCCEx_PLL2_Config>
 8002798:	4604      	mov	r4, r0
 800279a:	e7e3      	b.n	8002764 <HAL_RCCEx_PeriphCLKConfig+0x80>
 800279c:	2100      	movs	r1, #0
 800279e:	f105 0028 	add.w	r0, r5, #40	@ 0x28
 80027a2:	f7ff ff27 	bl	80025f4 <RCCEx_PLL3_Config>
 80027a6:	e7f7      	b.n	8002798 <HAL_RCCEx_PeriphCLKConfig+0xb4>
 80027a8:	2601      	movs	r6, #1
 80027aa:	4634      	mov	r4, r6
 80027ac:	e7e2      	b.n	8002774 <HAL_RCCEx_PeriphCLKConfig+0x90>
 80027ae:	4626      	mov	r6, r4
 80027b0:	e7e0      	b.n	8002774 <HAL_RCCEx_PeriphCLKConfig+0x90>
 80027b2:	f023 0240 	bic.w	r2, r3, #64	@ 0x40
 80027b6:	f5b2 7f80 	cmp.w	r2, #256	@ 0x100
 80027ba:	d001      	beq.n	80027c0 <HAL_RCCEx_PeriphCLKConfig+0xdc>
 80027bc:	2bc0      	cmp	r3, #192	@ 0xc0
 80027be:	d1e3      	bne.n	8002788 <HAL_RCCEx_PeriphCLKConfig+0xa4>
 80027c0:	bb4c      	cbnz	r4, 8002816 <HAL_RCCEx_PeriphCLKConfig+0x132>
 80027c2:	4a70      	ldr	r2, [pc, #448]	@ (8002984 <HAL_RCCEx_PeriphCLKConfig+0x2a0>)
 80027c4:	6de9      	ldr	r1, [r5, #92]	@ 0x5c
 80027c6:	6d13      	ldr	r3, [r2, #80]	@ 0x50
 80027c8:	f423 73e0 	bic.w	r3, r3, #448	@ 0x1c0
 80027cc:	430b      	orrs	r3, r1
 80027ce:	6513      	str	r3, [r2, #80]	@ 0x50
 80027d0:	682b      	ldr	r3, [r5, #0]
 80027d2:	055f      	lsls	r7, r3, #21
 80027d4:	d531      	bpl.n	800283a <HAL_RCCEx_PeriphCLKConfig+0x156>
 80027d6:	6e2b      	ldr	r3, [r5, #96]	@ 0x60
 80027d8:	f5b3 6f80 	cmp.w	r3, #1024	@ 0x400
 80027dc:	d047      	beq.n	800286e <HAL_RCCEx_PeriphCLKConfig+0x18a>
 80027de:	d81c      	bhi.n	800281a <HAL_RCCEx_PeriphCLKConfig+0x136>
 80027e0:	2b00      	cmp	r3, #0
 80027e2:	d037      	beq.n	8002854 <HAL_RCCEx_PeriphCLKConfig+0x170>
 80027e4:	f5b3 7f00 	cmp.w	r3, #512	@ 0x200
 80027e8:	d03a      	beq.n	8002860 <HAL_RCCEx_PeriphCLKConfig+0x17c>
 80027ea:	2601      	movs	r6, #1
 80027ec:	4634      	mov	r4, r6
 80027ee:	e024      	b.n	800283a <HAL_RCCEx_PeriphCLKConfig+0x156>
 80027f0:	4a64      	ldr	r2, [pc, #400]	@ (8002984 <HAL_RCCEx_PeriphCLKConfig+0x2a0>)
 80027f2:	6ad3      	ldr	r3, [r2, #44]	@ 0x2c
 80027f4:	f443 3300 	orr.w	r3, r3, #131072	@ 0x20000
 80027f8:	62d3      	str	r3, [r2, #44]	@ 0x2c
 80027fa:	e7e1      	b.n	80027c0 <HAL_RCCEx_PeriphCLKConfig+0xdc>
 80027fc:	2100      	movs	r1, #0
 80027fe:	f105 0008 	add.w	r0, r5, #8
 8002802:	f7ff fe7f 	bl	8002504 <RCCEx_PLL2_Config>
 8002806:	4604      	mov	r4, r0
 8002808:	e7da      	b.n	80027c0 <HAL_RCCEx_PeriphCLKConfig+0xdc>
 800280a:	2100      	movs	r1, #0
 800280c:	f105 0028 	add.w	r0, r5, #40	@ 0x28
 8002810:	f7ff fef0 	bl	80025f4 <RCCEx_PLL3_Config>
 8002814:	e7f7      	b.n	8002806 <HAL_RCCEx_PeriphCLKConfig+0x122>
 8002816:	4626      	mov	r6, r4
 8002818:	e7da      	b.n	80027d0 <HAL_RCCEx_PeriphCLKConfig+0xec>
 800281a:	f423 7200 	bic.w	r2, r3, #512	@ 0x200
 800281e:	f5b2 6f00 	cmp.w	r2, #2048	@ 0x800
 8002822:	d002      	beq.n	800282a <HAL_RCCEx_PeriphCLKConfig+0x146>
 8002824:	f5b3 6fc0 	cmp.w	r3, #1536	@ 0x600
 8002828:	d1df      	bne.n	80027ea <HAL_RCCEx_PeriphCLKConfig+0x106>
 800282a:	bb34      	cbnz	r4, 800287a <HAL_RCCEx_PeriphCLKConfig+0x196>
 800282c:	4a55      	ldr	r2, [pc, #340]	@ (8002984 <HAL_RCCEx_PeriphCLKConfig+0x2a0>)
 800282e:	6e29      	ldr	r1, [r5, #96]	@ 0x60
 8002830:	6d13      	ldr	r3, [r2, #80]	@ 0x50
 8002832:	f423 6360 	bic.w	r3, r3, #3584	@ 0xe00
 8002836:	430b      	orrs	r3, r1
 8002838:	6513      	str	r3, [r2, #80]	@ 0x50
 800283a:	682b      	ldr	r3, [r5, #0]
 800283c:	0198      	lsls	r0, r3, #6
 800283e:	d528      	bpl.n	8002892 <HAL_RCCEx_PeriphCLKConfig+0x1ae>
 8002840:	6ceb      	ldr	r3, [r5, #76]	@ 0x4c
 8002842:	2b20      	cmp	r3, #32
 8002844:	d03b      	beq.n	80028be <HAL_RCCEx_PeriphCLKConfig+0x1da>
 8002846:	d81a      	bhi.n	800287e <HAL_RCCEx_PeriphCLKConfig+0x19a>
 8002848:	b1db      	cbz	r3, 8002882 <HAL_RCCEx_PeriphCLKConfig+0x19e>
 800284a:	2b10      	cmp	r3, #16
 800284c:	d031      	beq.n	80028b2 <HAL_RCCEx_PeriphCLKConfig+0x1ce>
 800284e:	2601      	movs	r6, #1
 8002850:	4634      	mov	r4, r6
 8002852:	e01e      	b.n	8002892 <HAL_RCCEx_PeriphCLKConfig+0x1ae>
 8002854:	4a4b      	ldr	r2, [pc, #300]	@ (8002984 <HAL_RCCEx_PeriphCLKConfig+0x2a0>)
 8002856:	6ad3      	ldr	r3, [r2, #44]	@ 0x2c
 8002858:	f443 3300 	orr.w	r3, r3, #131072	@ 0x20000
 800285c:	62d3      	str	r3, [r2, #44]	@ 0x2c
 800285e:	e7e4      	b.n	800282a <HAL_RCCEx_PeriphCLKConfig+0x146>
 8002860:	2100      	movs	r1, #0
 8002862:	f105 0008 	add.w	r0, r5, #8
 8002866:	f7ff fe4d 	bl	8002504 <RCCEx_PLL2_Config>
 800286a:	4604      	mov	r4, r0
 800286c:	e7dd      	b.n	800282a <HAL_RCCEx_PeriphCLKConfig+0x146>
 800286e:	2100      	movs	r1, #0
 8002870:	f105 0028 	add.w	r0, r5, #40	@ 0x28
 8002874:	f7ff febe 	bl	80025f4 <RCCEx_PLL3_Config>
 8002878:	e7f7      	b.n	800286a <HAL_RCCEx_PeriphCLKConfig+0x186>
 800287a:	4626      	mov	r6, r4
 800287c:	e7dd      	b.n	800283a <HAL_RCCEx_PeriphCLKConfig+0x156>
 800287e:	2b30      	cmp	r3, #48	@ 0x30
 8002880:	d1e5      	bne.n	800284e <HAL_RCCEx_PeriphCLKConfig+0x16a>
 8002882:	bb1c      	cbnz	r4, 80028cc <HAL_RCCEx_PeriphCLKConfig+0x1e8>
 8002884:	4a3f      	ldr	r2, [pc, #252]	@ (8002984 <HAL_RCCEx_PeriphCLKConfig+0x2a0>)
 8002886:	6ce9      	ldr	r1, [r5, #76]	@ 0x4c
 8002888:	6cd3      	ldr	r3, [r2, #76]	@ 0x4c
 800288a:	f023 0330 	bic.w	r3, r3, #48	@ 0x30
 800288e:	430b      	orrs	r3, r1
 8002890:	64d3      	str	r3, [r2, #76]	@ 0x4c
 8002892:	682b      	ldr	r3, [r5, #0]
 8002894:	04d9      	lsls	r1, r3, #19
 8002896:	d52a      	bpl.n	80028ee <HAL_RCCEx_PeriphCLKConfig+0x20a>
 8002898:	6e6b      	ldr	r3, [r5, #100]	@ 0x64
 800289a:	f5b3 5f00 	cmp.w	r3, #8192	@ 0x2000
 800289e:	d07a      	beq.n	8002996 <HAL_RCCEx_PeriphCLKConfig+0x2b2>
 80028a0:	d816      	bhi.n	80028d0 <HAL_RCCEx_PeriphCLKConfig+0x1ec>
 80028a2:	2b00      	cmp	r3, #0
 80028a4:	d068      	beq.n	8002978 <HAL_RCCEx_PeriphCLKConfig+0x294>
 80028a6:	f5b3 5f80 	cmp.w	r3, #4096	@ 0x1000
 80028aa:	d06d      	beq.n	8002988 <HAL_RCCEx_PeriphCLKConfig+0x2a4>
 80028ac:	2601      	movs	r6, #1
 80028ae:	4634      	mov	r4, r6
 80028b0:	e01d      	b.n	80028ee <HAL_RCCEx_PeriphCLKConfig+0x20a>
 80028b2:	4a34      	ldr	r2, [pc, #208]	@ (8002984 <HAL_RCCEx_PeriphCLKConfig+0x2a0>)
 80028b4:	6ad3      	ldr	r3, [r2, #44]	@ 0x2c
 80028b6:	f443 3300 	orr.w	r3, r3, #131072	@ 0x20000
 80028ba:	62d3      	str	r3, [r2, #44]	@ 0x2c
 80028bc:	e7e1      	b.n	8002882 <HAL_RCCEx_PeriphCLKConfig+0x19e>
 80028be:	2102      	movs	r1, #2
 80028c0:	f105 0008 	add.w	r0, r5, #8
 80028c4:	f7ff fe1e 	bl	8002504 <RCCEx_PLL2_Config>
 80028c8:	4604      	mov	r4, r0
 80028ca:	e7da      	b.n	8002882 <HAL_RCCEx_PeriphCLKConfig+0x19e>
 80028cc:	4626      	mov	r6, r4
 80028ce:	e7e0      	b.n	8002892 <HAL_RCCEx_PeriphCLKConfig+0x1ae>
 80028d0:	f5b3 5f40 	cmp.w	r3, #12288	@ 0x3000
 80028d4:	d002      	beq.n	80028dc <HAL_RCCEx_PeriphCLKConfig+0x1f8>
 80028d6:	f5b3 4f80 	cmp.w	r3, #16384	@ 0x4000
 80028da:	d1e7      	bne.n	80028ac <HAL_RCCEx_PeriphCLKConfig+0x1c8>
 80028dc:	2c00      	cmp	r4, #0
 80028de:	d160      	bne.n	80029a2 <HAL_RCCEx_PeriphCLKConfig+0x2be>
 80028e0:	4a28      	ldr	r2, [pc, #160]	@ (8002984 <HAL_RCCEx_PeriphCLKConfig+0x2a0>)
 80028e2:	6e69      	ldr	r1, [r5, #100]	@ 0x64
 80028e4:	6d13      	ldr	r3, [r2, #80]	@ 0x50
 80028e6:	f423 43e0 	bic.w	r3, r3, #28672	@ 0x7000
 80028ea:	430b      	orrs	r3, r1
 80028ec:	6513      	str	r3, [r2, #80]	@ 0x50
 80028ee:	682b      	ldr	r3, [r5, #0]
 80028f0:	049a      	lsls	r2, r3, #18
 80028f2:	d50b      	bpl.n	800290c <HAL_RCCEx_PeriphCLKConfig+0x228>
 80028f4:	6eab      	ldr	r3, [r5, #104]	@ 0x68
 80028f6:	f5b3 3f00 	cmp.w	r3, #131072	@ 0x20000
 80028fa:	d06c      	beq.n	80029d6 <HAL_RCCEx_PeriphCLKConfig+0x2f2>
 80028fc:	d853      	bhi.n	80029a6 <HAL_RCCEx_PeriphCLKConfig+0x2c2>
 80028fe:	2b00      	cmp	r3, #0
 8002900:	d059      	beq.n	80029b6 <HAL_RCCEx_PeriphCLKConfig+0x2d2>
 8002902:	f5b3 3f80 	cmp.w	r3, #65536	@ 0x10000
 8002906:	d05f      	beq.n	80029c8 <HAL_RCCEx_PeriphCLKConfig+0x2e4>
 8002908:	2601      	movs	r6, #1
 800290a:	4634      	mov	r4, r6
 800290c:	682b      	ldr	r3, [r5, #0]
 800290e:	045b      	lsls	r3, r3, #17
 8002910:	d50d      	bpl.n	800292e <HAL_RCCEx_PeriphCLKConfig+0x24a>
 8002912:	f8d5 30b0 	ldr.w	r3, [r5, #176]	@ 0xb0
 8002916:	f1b3 5f00 	cmp.w	r3, #536870912	@ 0x20000000
 800291a:	f000 8082 	beq.w	8002a22 <HAL_RCCEx_PeriphCLKConfig+0x33e>
 800291e:	d862      	bhi.n	80029e6 <HAL_RCCEx_PeriphCLKConfig+0x302>
 8002920:	2b00      	cmp	r3, #0
 8002922:	d06a      	beq.n	80029fa <HAL_RCCEx_PeriphCLKConfig+0x316>
 8002924:	f1b3 5f80 	cmp.w	r3, #268435456	@ 0x10000000
 8002928:	d074      	beq.n	8002a14 <HAL_RCCEx_PeriphCLKConfig+0x330>
 800292a:	2601      	movs	r6, #1
 800292c:	4634      	mov	r4, r6
 800292e:	682b      	ldr	r3, [r5, #0]
 8002930:	041f      	lsls	r7, r3, #16
 8002932:	d513      	bpl.n	800295c <HAL_RCCEx_PeriphCLKConfig+0x278>
 8002934:	6fab      	ldr	r3, [r5, #120]	@ 0x78
 8002936:	f1b3 5f80 	cmp.w	r3, #268435456	@ 0x10000000
 800293a:	d07a      	beq.n	8002a32 <HAL_RCCEx_PeriphCLKConfig+0x34e>
 800293c:	f1b3 5f00 	cmp.w	r3, #536870912	@ 0x20000000
 8002940:	d07d      	beq.n	8002a3e <HAL_RCCEx_PeriphCLKConfig+0x35a>
 8002942:	2b00      	cmp	r3, #0
 8002944:	f040 8082 	bne.w	8002a4c <HAL_RCCEx_PeriphCLKConfig+0x368>
 8002948:	2c00      	cmp	r4, #0
 800294a:	f040 8082 	bne.w	8002a52 <HAL_RCCEx_PeriphCLKConfig+0x36e>
 800294e:	4a0d      	ldr	r2, [pc, #52]	@ (8002984 <HAL_RCCEx_PeriphCLKConfig+0x2a0>)
 8002950:	6fa9      	ldr	r1, [r5, #120]	@ 0x78
 8002952:	6d13      	ldr	r3, [r2, #80]	@ 0x50
 8002954:	f023 5340 	bic.w	r3, r3, #805306368	@ 0x30000000
 8002958:	430b      	orrs	r3, r1
 800295a:	6513      	str	r3, [r2, #80]	@ 0x50
 800295c:	682b      	ldr	r3, [r5, #0]
 800295e:	01d8      	lsls	r0, r3, #7
 8002960:	f140 8087 	bpl.w	8002a72 <HAL_RCCEx_PeriphCLKConfig+0x38e>
 8002964:	6cab      	ldr	r3, [r5, #72]	@ 0x48
 8002966:	2b03      	cmp	r3, #3
 8002968:	f200 80e1 	bhi.w	8002b2e <HAL_RCCEx_PeriphCLKConfig+0x44a>
 800296c:	e8df f013 	tbh	[pc, r3, lsl #1]
 8002970:	00730078 	.word	0x00730078
 8002974:	007800d8 	.word	0x007800d8
 8002978:	4a02      	ldr	r2, [pc, #8]	@ (8002984 <HAL_RCCEx_PeriphCLKConfig+0x2a0>)
 800297a:	6ad3      	ldr	r3, [r2, #44]	@ 0x2c
 800297c:	f443 3300 	orr.w	r3, r3, #131072	@ 0x20000
 8002980:	62d3      	str	r3, [r2, #44]	@ 0x2c
 8002982:	e7ab      	b.n	80028dc <HAL_RCCEx_PeriphCLKConfig+0x1f8>
 8002984:	58024400 	.word	0x58024400
 8002988:	2100      	movs	r1, #0
 800298a:	f105 0008 	add.w	r0, r5, #8
 800298e:	f7ff fdb9 	bl	8002504 <RCCEx_PLL2_Config>
 8002992:	4604      	mov	r4, r0
 8002994:	e7a2      	b.n	80028dc <HAL_RCCEx_PeriphCLKConfig+0x1f8>
 8002996:	2100      	movs	r1, #0
 8002998:	f105 0028 	add.w	r0, r5, #40	@ 0x28
 800299c:	f7ff fe2a 	bl	80025f4 <RCCEx_PLL3_Config>
 80029a0:	e7f7      	b.n	8002992 <HAL_RCCEx_PeriphCLKConfig+0x2ae>
 80029a2:	4626      	mov	r6, r4
 80029a4:	e7a3      	b.n	80028ee <HAL_RCCEx_PeriphCLKConfig+0x20a>
 80029a6:	f423 3280 	bic.w	r2, r3, #65536	@ 0x10000
 80029aa:	f5b2 2f80 	cmp.w	r2, #262144	@ 0x40000
 80029ae:	d002      	beq.n	80029b6 <HAL_RCCEx_PeriphCLKConfig+0x2d2>
 80029b0:	f5b3 3f40 	cmp.w	r3, #196608	@ 0x30000
 80029b4:	d1a8      	bne.n	8002908 <HAL_RCCEx_PeriphCLKConfig+0x224>
 80029b6:	b9a4      	cbnz	r4, 80029e2 <HAL_RCCEx_PeriphCLKConfig+0x2fe>
 80029b8:	4a94      	ldr	r2, [pc, #592]	@ (8002c0c <HAL_RCCEx_PeriphCLKConfig+0x528>)
 80029ba:	6ea9      	ldr	r1, [r5, #104]	@ 0x68
 80029bc:	6d13      	ldr	r3, [r2, #80]	@ 0x50
 80029be:	f423 23e0 	bic.w	r3, r3, #458752	@ 0x70000
 80029c2:	430b      	orrs	r3, r1
 80029c4:	6513      	str	r3, [r2, #80]	@ 0x50
 80029c6:	e7a1      	b.n	800290c <HAL_RCCEx_PeriphCLKConfig+0x228>
 80029c8:	2101      	movs	r1, #1
 80029ca:	f105 0008 	add.w	r0, r5, #8
 80029ce:	f7ff fd99 	bl	8002504 <RCCEx_PLL2_Config>
 80029d2:	4604      	mov	r4, r0
 80029d4:	e7ef      	b.n	80029b6 <HAL_RCCEx_PeriphCLKConfig+0x2d2>
 80029d6:	2101      	movs	r1, #1
 80029d8:	f105 0028 	add.w	r0, r5, #40	@ 0x28
 80029dc:	f7ff fe0a 	bl	80025f4 <RCCEx_PLL3_Config>
 80029e0:	e7f7      	b.n	80029d2 <HAL_RCCEx_PeriphCLKConfig+0x2ee>
 80029e2:	4626      	mov	r6, r4
 80029e4:	e792      	b.n	800290c <HAL_RCCEx_PeriphCLKConfig+0x228>
 80029e6:	f1b3 4fa0 	cmp.w	r3, #1342177280	@ 0x50000000
 80029ea:	d006      	beq.n	80029fa <HAL_RCCEx_PeriphCLKConfig+0x316>
 80029ec:	d80f      	bhi.n	8002a0e <HAL_RCCEx_PeriphCLKConfig+0x32a>
 80029ee:	f1b3 5f40 	cmp.w	r3, #805306368	@ 0x30000000
 80029f2:	d002      	beq.n	80029fa <HAL_RCCEx_PeriphCLKConfig+0x316>
 80029f4:	f1b3 4f80 	cmp.w	r3, #1073741824	@ 0x40000000
 80029f8:	d197      	bne.n	800292a <HAL_RCCEx_PeriphCLKConfig+0x246>
 80029fa:	b9c4      	cbnz	r4, 8002a2e <HAL_RCCEx_PeriphCLKConfig+0x34a>
 80029fc:	4a83      	ldr	r2, [pc, #524]	@ (8002c0c <HAL_RCCEx_PeriphCLKConfig+0x528>)
 80029fe:	f8d5 10b0 	ldr.w	r1, [r5, #176]	@ 0xb0
 8002a02:	6d93      	ldr	r3, [r2, #88]	@ 0x58
 8002a04:	f023 43e0 	bic.w	r3, r3, #1879048192	@ 0x70000000
 8002a08:	430b      	orrs	r3, r1
 8002a0a:	6593      	str	r3, [r2, #88]	@ 0x58
 8002a0c:	e78f      	b.n	800292e <HAL_RCCEx_PeriphCLKConfig+0x24a>
 8002a0e:	f1b3 4fc0 	cmp.w	r3, #1610612736	@ 0x60000000
 8002a12:	e7f1      	b.n	80029f8 <HAL_RCCEx_PeriphCLKConfig+0x314>
 8002a14:	2101      	movs	r1, #1
 8002a16:	f105 0008 	add.w	r0, r5, #8
 8002a1a:	f7ff fd73 	bl	8002504 <RCCEx_PLL2_Config>
 8002a1e:	4604      	mov	r4, r0
 8002a20:	e7eb      	b.n	80029fa <HAL_RCCEx_PeriphCLKConfig+0x316>
 8002a22:	2101      	movs	r1, #1
 8002a24:	f105 0028 	add.w	r0, r5, #40	@ 0x28
 8002a28:	f7ff fde4 	bl	80025f4 <RCCEx_PLL3_Config>
 8002a2c:	e7f7      	b.n	8002a1e <HAL_RCCEx_PeriphCLKConfig+0x33a>
 8002a2e:	4626      	mov	r6, r4
 8002a30:	e77d      	b.n	800292e <HAL_RCCEx_PeriphCLKConfig+0x24a>
 8002a32:	4a76      	ldr	r2, [pc, #472]	@ (8002c0c <HAL_RCCEx_PeriphCLKConfig+0x528>)
 8002a34:	6ad3      	ldr	r3, [r2, #44]	@ 0x2c
 8002a36:	f443 3300 	orr.w	r3, r3, #131072	@ 0x20000
 8002a3a:	62d3      	str	r3, [r2, #44]	@ 0x2c
 8002a3c:	e784      	b.n	8002948 <HAL_RCCEx_PeriphCLKConfig+0x264>
 8002a3e:	2101      	movs	r1, #1
 8002a40:	f105 0008 	add.w	r0, r5, #8
 8002a44:	f7ff fd5e 	bl	8002504 <RCCEx_PLL2_Config>
 8002a48:	4604      	mov	r4, r0
 8002a4a:	e77d      	b.n	8002948 <HAL_RCCEx_PeriphCLKConfig+0x264>
 8002a4c:	2601      	movs	r6, #1
 8002a4e:	4634      	mov	r4, r6
 8002a50:	e784      	b.n	800295c <HAL_RCCEx_PeriphCLKConfig+0x278>
 8002a52:	4626      	mov	r6, r4
 8002a54:	e782      	b.n	800295c <HAL_RCCEx_PeriphCLKConfig+0x278>
 8002a56:	4a6d      	ldr	r2, [pc, #436]	@ (8002c0c <HAL_RCCEx_PeriphCLKConfig+0x528>)
 8002a58:	6ad3      	ldr	r3, [r2, #44]	@ 0x2c
 8002a5a:	f443 3300 	orr.w	r3, r3, #131072	@ 0x20000
 8002a5e:	62d3      	str	r3, [r2, #44]	@ 0x2c
 8002a60:	2c00      	cmp	r4, #0
 8002a62:	d167      	bne.n	8002b34 <HAL_RCCEx_PeriphCLKConfig+0x450>
 8002a64:	4a69      	ldr	r2, [pc, #420]	@ (8002c0c <HAL_RCCEx_PeriphCLKConfig+0x528>)
 8002a66:	6ca9      	ldr	r1, [r5, #72]	@ 0x48
 8002a68:	6cd3      	ldr	r3, [r2, #76]	@ 0x4c
 8002a6a:	f023 0303 	bic.w	r3, r3, #3
 8002a6e:	430b      	orrs	r3, r1
 8002a70:	64d3      	str	r3, [r2, #76]	@ 0x4c
 8002a72:	682b      	ldr	r3, [r5, #0]
 8002a74:	0259      	lsls	r1, r3, #9
 8002a76:	d539      	bpl.n	8002aec <HAL_RCCEx_PeriphCLKConfig+0x408>
 8002a78:	4f65      	ldr	r7, [pc, #404]	@ (8002c10 <HAL_RCCEx_PeriphCLKConfig+0x52c>)
 8002a7a:	683b      	ldr	r3, [r7, #0]
 8002a7c:	f443 7380 	orr.w	r3, r3, #256	@ 0x100
 8002a80:	603b      	str	r3, [r7, #0]
 8002a82:	f7fe fbc1 	bl	8001208 <HAL_GetTick>
 8002a86:	4680      	mov	r8, r0
 8002a88:	683b      	ldr	r3, [r7, #0]
 8002a8a:	05da      	lsls	r2, r3, #23
 8002a8c:	d554      	bpl.n	8002b38 <HAL_RCCEx_PeriphCLKConfig+0x454>
 8002a8e:	2c00      	cmp	r4, #0
 8002a90:	d170      	bne.n	8002b74 <HAL_RCCEx_PeriphCLKConfig+0x490>
 8002a92:	4b5e      	ldr	r3, [pc, #376]	@ (8002c0c <HAL_RCCEx_PeriphCLKConfig+0x528>)
 8002a94:	f8d5 00b4 	ldr.w	r0, [r5, #180]	@ 0xb4
 8002a98:	6f1a      	ldr	r2, [r3, #112]	@ 0x70
 8002a9a:	4042      	eors	r2, r0
 8002a9c:	f412 7f40 	tst.w	r2, #768	@ 0x300
 8002aa0:	d00b      	beq.n	8002aba <HAL_RCCEx_PeriphCLKConfig+0x3d6>
 8002aa2:	6f1a      	ldr	r2, [r3, #112]	@ 0x70
 8002aa4:	6f19      	ldr	r1, [r3, #112]	@ 0x70
 8002aa6:	f422 7240 	bic.w	r2, r2, #768	@ 0x300
 8002aaa:	f441 3180 	orr.w	r1, r1, #65536	@ 0x10000
 8002aae:	6719      	str	r1, [r3, #112]	@ 0x70
 8002ab0:	6f19      	ldr	r1, [r3, #112]	@ 0x70
 8002ab2:	f421 3180 	bic.w	r1, r1, #65536	@ 0x10000
 8002ab6:	6719      	str	r1, [r3, #112]	@ 0x70
 8002ab8:	671a      	str	r2, [r3, #112]	@ 0x70
 8002aba:	f5b0 7f80 	cmp.w	r0, #256	@ 0x100
 8002abe:	d044      	beq.n	8002b4a <HAL_RCCEx_PeriphCLKConfig+0x466>
 8002ac0:	f8d5 30b4 	ldr.w	r3, [r5, #180]	@ 0xb4
 8002ac4:	4951      	ldr	r1, [pc, #324]	@ (8002c0c <HAL_RCCEx_PeriphCLKConfig+0x528>)
 8002ac6:	f403 7240 	and.w	r2, r3, #768	@ 0x300
 8002aca:	f5b2 7f40 	cmp.w	r2, #768	@ 0x300
 8002ace:	d14d      	bne.n	8002b6c <HAL_RCCEx_PeriphCLKConfig+0x488>
 8002ad0:	6908      	ldr	r0, [r1, #16]
 8002ad2:	4a50      	ldr	r2, [pc, #320]	@ (8002c14 <HAL_RCCEx_PeriphCLKConfig+0x530>)
 8002ad4:	f420 507c 	bic.w	r0, r0, #16128	@ 0x3f00
 8002ad8:	ea02 1213 	and.w	r2, r2, r3, lsr #4
 8002adc:	4302      	orrs	r2, r0
 8002ade:	610a      	str	r2, [r1, #16]
 8002ae0:	f3c3 030b 	ubfx	r3, r3, #0, #12
 8002ae4:	4a49      	ldr	r2, [pc, #292]	@ (8002c0c <HAL_RCCEx_PeriphCLKConfig+0x528>)
 8002ae6:	6f11      	ldr	r1, [r2, #112]	@ 0x70
 8002ae8:	430b      	orrs	r3, r1
 8002aea:	6713      	str	r3, [r2, #112]	@ 0x70
 8002aec:	682b      	ldr	r3, [r5, #0]
 8002aee:	07d8      	lsls	r0, r3, #31
 8002af0:	d50a      	bpl.n	8002b08 <HAL_RCCEx_PeriphCLKConfig+0x424>
 8002af2:	f8d5 3084 	ldr.w	r3, [r5, #132]	@ 0x84
 8002af6:	2b10      	cmp	r3, #16
 8002af8:	d055      	beq.n	8002ba6 <HAL_RCCEx_PeriphCLKConfig+0x4c2>
 8002afa:	d83d      	bhi.n	8002b78 <HAL_RCCEx_PeriphCLKConfig+0x494>
 8002afc:	2b00      	cmp	r3, #0
 8002afe:	d041      	beq.n	8002b84 <HAL_RCCEx_PeriphCLKConfig+0x4a0>
 8002b00:	2b08      	cmp	r3, #8
 8002b02:	d049      	beq.n	8002b98 <HAL_RCCEx_PeriphCLKConfig+0x4b4>
 8002b04:	2601      	movs	r6, #1
 8002b06:	4634      	mov	r4, r6
 8002b08:	682b      	ldr	r3, [r5, #0]
 8002b0a:	0799      	lsls	r1, r3, #30
 8002b0c:	d562      	bpl.n	8002bd4 <HAL_RCCEx_PeriphCLKConfig+0x4f0>
 8002b0e:	f8d5 3080 	ldr.w	r3, [r5, #128]	@ 0x80
 8002b12:	2b05      	cmp	r3, #5
 8002b14:	d874      	bhi.n	8002c00 <HAL_RCCEx_PeriphCLKConfig+0x51c>
 8002b16:	e8df f003 	tbb	[pc, r3]
 8002b1a:	4e54      	.short	0x4e54
 8002b1c:	5454546d 	.word	0x5454546d
 8002b20:	2102      	movs	r1, #2
 8002b22:	f105 0008 	add.w	r0, r5, #8
 8002b26:	f7ff fced 	bl	8002504 <RCCEx_PLL2_Config>
 8002b2a:	4604      	mov	r4, r0
 8002b2c:	e798      	b.n	8002a60 <HAL_RCCEx_PeriphCLKConfig+0x37c>
 8002b2e:	2601      	movs	r6, #1
 8002b30:	4634      	mov	r4, r6
 8002b32:	e79e      	b.n	8002a72 <HAL_RCCEx_PeriphCLKConfig+0x38e>
 8002b34:	4626      	mov	r6, r4
 8002b36:	e79c      	b.n	8002a72 <HAL_RCCEx_PeriphCLKConfig+0x38e>
 8002b38:	f7fe fb66 	bl	8001208 <HAL_GetTick>
 8002b3c:	eba0 0008 	sub.w	r0, r0, r8
 8002b40:	2864      	cmp	r0, #100	@ 0x64
 8002b42:	d9a1      	bls.n	8002a88 <HAL_RCCEx_PeriphCLKConfig+0x3a4>
 8002b44:	2603      	movs	r6, #3
 8002b46:	4634      	mov	r4, r6
 8002b48:	e7d0      	b.n	8002aec <HAL_RCCEx_PeriphCLKConfig+0x408>
 8002b4a:	f7fe fb5d 	bl	8001208 <HAL_GetTick>
 8002b4e:	f8df 80bc 	ldr.w	r8, [pc, #188]	@ 8002c0c <HAL_RCCEx_PeriphCLKConfig+0x528>
 8002b52:	4607      	mov	r7, r0
 8002b54:	f241 3988 	movw	r9, #5000	@ 0x1388
 8002b58:	f8d8 3070 	ldr.w	r3, [r8, #112]	@ 0x70
 8002b5c:	079b      	lsls	r3, r3, #30
 8002b5e:	d4af      	bmi.n	8002ac0 <HAL_RCCEx_PeriphCLKConfig+0x3dc>
 8002b60:	f7fe fb52 	bl	8001208 <HAL_GetTick>
 8002b64:	1bc0      	subs	r0, r0, r7
 8002b66:	4548      	cmp	r0, r9
 8002b68:	d9f6      	bls.n	8002b58 <HAL_RCCEx_PeriphCLKConfig+0x474>
 8002b6a:	e7eb      	b.n	8002b44 <HAL_RCCEx_PeriphCLKConfig+0x460>
 8002b6c:	690a      	ldr	r2, [r1, #16]
 8002b6e:	f422 527c 	bic.w	r2, r2, #16128	@ 0x3f00
 8002b72:	e7b4      	b.n	8002ade <HAL_RCCEx_PeriphCLKConfig+0x3fa>
 8002b74:	4626      	mov	r6, r4
 8002b76:	e7b9      	b.n	8002aec <HAL_RCCEx_PeriphCLKConfig+0x408>
 8002b78:	f023 0208 	bic.w	r2, r3, #8
 8002b7c:	2a20      	cmp	r2, #32
 8002b7e:	d001      	beq.n	8002b84 <HAL_RCCEx_PeriphCLKConfig+0x4a0>
 8002b80:	2b18      	cmp	r3, #24
 8002b82:	d1bf      	bne.n	8002b04 <HAL_RCCEx_PeriphCLKConfig+0x420>
 8002b84:	b9ac      	cbnz	r4, 8002bb2 <HAL_RCCEx_PeriphCLKConfig+0x4ce>
 8002b86:	4a21      	ldr	r2, [pc, #132]	@ (8002c0c <HAL_RCCEx_PeriphCLKConfig+0x528>)
 8002b88:	f8d5 1084 	ldr.w	r1, [r5, #132]	@ 0x84
 8002b8c:	6d53      	ldr	r3, [r2, #84]	@ 0x54
 8002b8e:	f023 0338 	bic.w	r3, r3, #56	@ 0x38
 8002b92:	430b      	orrs	r3, r1
 8002b94:	6553      	str	r3, [r2, #84]	@ 0x54
 8002b96:	e7b7      	b.n	8002b08 <HAL_RCCEx_PeriphCLKConfig+0x424>
 8002b98:	2101      	movs	r1, #1
 8002b9a:	f105 0008 	add.w	r0, r5, #8
 8002b9e:	f7ff fcb1 	bl	8002504 <RCCEx_PLL2_Config>
 8002ba2:	4604      	mov	r4, r0
 8002ba4:	e7ee      	b.n	8002b84 <HAL_RCCEx_PeriphCLKConfig+0x4a0>
 8002ba6:	2101      	movs	r1, #1
 8002ba8:	f105 0028 	add.w	r0, r5, #40	@ 0x28
 8002bac:	f7ff fd22 	bl	80025f4 <RCCEx_PLL3_Config>
 8002bb0:	e7f7      	b.n	8002ba2 <HAL_RCCEx_PeriphCLKConfig+0x4be>
 8002bb2:	4626      	mov	r6, r4
 8002bb4:	e7a8      	b.n	8002b08 <HAL_RCCEx_PeriphCLKConfig+0x424>
 8002bb6:	2101      	movs	r1, #1
 8002bb8:	f105 0008 	add.w	r0, r5, #8
 8002bbc:	f7ff fca2 	bl	8002504 <RCCEx_PLL2_Config>
 8002bc0:	4604      	mov	r4, r0
 8002bc2:	bb04      	cbnz	r4, 8002c06 <HAL_RCCEx_PeriphCLKConfig+0x522>
 8002bc4:	4a11      	ldr	r2, [pc, #68]	@ (8002c0c <HAL_RCCEx_PeriphCLKConfig+0x528>)
 8002bc6:	f8d5 1080 	ldr.w	r1, [r5, #128]	@ 0x80
 8002bca:	6d53      	ldr	r3, [r2, #84]	@ 0x54
 8002bcc:	f023 0307 	bic.w	r3, r3, #7
 8002bd0:	430b      	orrs	r3, r1
 8002bd2:	6553      	str	r3, [r2, #84]	@ 0x54
 8002bd4:	682b      	ldr	r3, [r5, #0]
 8002bd6:	075a      	lsls	r2, r3, #29
 8002bd8:	d52f      	bpl.n	8002c3a <HAL_RCCEx_PeriphCLKConfig+0x556>
 8002bda:	f8d5 309c 	ldr.w	r3, [r5, #156]	@ 0x9c
 8002bde:	2b05      	cmp	r3, #5
 8002be0:	f200 8171 	bhi.w	8002ec6 <HAL_RCCEx_PeriphCLKConfig+0x7e2>
 8002be4:	e8df f013 	tbh	[pc, r3, lsl #1]
 8002be8:	0018001e 	.word	0x0018001e
 8002bec:	001e0169 	.word	0x001e0169
 8002bf0:	001e001e 	.word	0x001e001e
 8002bf4:	2101      	movs	r1, #1
 8002bf6:	f105 0028 	add.w	r0, r5, #40	@ 0x28
 8002bfa:	f7ff fcfb 	bl	80025f4 <RCCEx_PLL3_Config>
 8002bfe:	e7df      	b.n	8002bc0 <HAL_RCCEx_PeriphCLKConfig+0x4dc>
 8002c00:	2601      	movs	r6, #1
 8002c02:	4634      	mov	r4, r6
 8002c04:	e7e6      	b.n	8002bd4 <HAL_RCCEx_PeriphCLKConfig+0x4f0>
 8002c06:	4626      	mov	r6, r4
 8002c08:	e7e4      	b.n	8002bd4 <HAL_RCCEx_PeriphCLKConfig+0x4f0>
 8002c0a:	bf00      	nop
 8002c0c:	58024400 	.word	0x58024400
 8002c10:	58024800 	.word	0x58024800
 8002c14:	00ffffcf 	.word	0x00ffffcf
 8002c18:	2101      	movs	r1, #1
 8002c1a:	f105 0008 	add.w	r0, r5, #8
 8002c1e:	f7ff fc71 	bl	8002504 <RCCEx_PLL2_Config>
 8002c22:	4604      	mov	r4, r0
 8002c24:	2c00      	cmp	r4, #0
 8002c26:	f040 8151 	bne.w	8002ecc <HAL_RCCEx_PeriphCLKConfig+0x7e8>
 8002c2a:	4aa9      	ldr	r2, [pc, #676]	@ (8002ed0 <HAL_RCCEx_PeriphCLKConfig+0x7ec>)
 8002c2c:	f8d5 109c 	ldr.w	r1, [r5, #156]	@ 0x9c
 8002c30:	6d93      	ldr	r3, [r2, #88]	@ 0x58
 8002c32:	f023 0307 	bic.w	r3, r3, #7
 8002c36:	430b      	orrs	r3, r1
 8002c38:	6593      	str	r3, [r2, #88]	@ 0x58
 8002c3a:	682b      	ldr	r3, [r5, #0]
 8002c3c:	069b      	lsls	r3, r3, #26
 8002c3e:	d510      	bpl.n	8002c62 <HAL_RCCEx_PeriphCLKConfig+0x57e>
 8002c40:	f8d5 3098 	ldr.w	r3, [r5, #152]	@ 0x98
 8002c44:	f1b3 5f00 	cmp.w	r3, #536870912	@ 0x20000000
 8002c48:	f000 815e 	beq.w	8002f08 <HAL_RCCEx_PeriphCLKConfig+0x824>
 8002c4c:	f200 8142 	bhi.w	8002ed4 <HAL_RCCEx_PeriphCLKConfig+0x7f0>
 8002c50:	2b00      	cmp	r3, #0
 8002c52:	f000 8148 	beq.w	8002ee6 <HAL_RCCEx_PeriphCLKConfig+0x802>
 8002c56:	f1b3 5f80 	cmp.w	r3, #268435456	@ 0x10000000
 8002c5a:	f000 814e 	beq.w	8002efa <HAL_RCCEx_PeriphCLKConfig+0x816>
 8002c5e:	2601      	movs	r6, #1
 8002c60:	4634      	mov	r4, r6
 8002c62:	682b      	ldr	r3, [r5, #0]
 8002c64:	065f      	lsls	r7, r3, #25
 8002c66:	d510      	bpl.n	8002c8a <HAL_RCCEx_PeriphCLKConfig+0x5a6>
 8002c68:	f8d5 30a4 	ldr.w	r3, [r5, #164]	@ 0xa4
 8002c6c:	f5b3 6f00 	cmp.w	r3, #2048	@ 0x800
 8002c70:	f000 816c 	beq.w	8002f4c <HAL_RCCEx_PeriphCLKConfig+0x868>
 8002c74:	f200 8150 	bhi.w	8002f18 <HAL_RCCEx_PeriphCLKConfig+0x834>
 8002c78:	2b00      	cmp	r3, #0
 8002c7a:	f000 8156 	beq.w	8002f2a <HAL_RCCEx_PeriphCLKConfig+0x846>
 8002c7e:	f5b3 6f80 	cmp.w	r3, #1024	@ 0x400
 8002c82:	f000 815c 	beq.w	8002f3e <HAL_RCCEx_PeriphCLKConfig+0x85a>
 8002c86:	2601      	movs	r6, #1
 8002c88:	4634      	mov	r4, r6
 8002c8a:	682b      	ldr	r3, [r5, #0]
 8002c8c:	0618      	lsls	r0, r3, #24
 8002c8e:	d510      	bpl.n	8002cb2 <HAL_RCCEx_PeriphCLKConfig+0x5ce>
 8002c90:	f8d5 30a8 	ldr.w	r3, [r5, #168]	@ 0xa8
 8002c94:	f5b3 4f80 	cmp.w	r3, #16384	@ 0x4000
 8002c98:	f000 817a 	beq.w	8002f90 <HAL_RCCEx_PeriphCLKConfig+0x8ac>
 8002c9c:	f200 815e 	bhi.w	8002f5c <HAL_RCCEx_PeriphCLKConfig+0x878>
 8002ca0:	2b00      	cmp	r3, #0
 8002ca2:	f000 8164 	beq.w	8002f6e <HAL_RCCEx_PeriphCLKConfig+0x88a>
 8002ca6:	f5b3 5f00 	cmp.w	r3, #8192	@ 0x2000
 8002caa:	f000 816a 	beq.w	8002f82 <HAL_RCCEx_PeriphCLKConfig+0x89e>
 8002cae:	2601      	movs	r6, #1
 8002cb0:	4634      	mov	r4, r6
 8002cb2:	682b      	ldr	r3, [r5, #0]
 8002cb4:	0719      	lsls	r1, r3, #28
 8002cb6:	d514      	bpl.n	8002ce2 <HAL_RCCEx_PeriphCLKConfig+0x5fe>
 8002cb8:	f8d5 308c 	ldr.w	r3, [r5, #140]	@ 0x8c
 8002cbc:	f5b3 5f80 	cmp.w	r3, #4096	@ 0x1000
 8002cc0:	d107      	bne.n	8002cd2 <HAL_RCCEx_PeriphCLKConfig+0x5ee>
 8002cc2:	2102      	movs	r1, #2
 8002cc4:	f105 0028 	add.w	r0, r5, #40	@ 0x28
 8002cc8:	f7ff fc94 	bl	80025f4 <RCCEx_PLL3_Config>
 8002ccc:	2800      	cmp	r0, #0
 8002cce:	bf18      	it	ne
 8002cd0:	2601      	movne	r6, #1
 8002cd2:	4a7f      	ldr	r2, [pc, #508]	@ (8002ed0 <HAL_RCCEx_PeriphCLKConfig+0x7ec>)
 8002cd4:	f8d5 108c 	ldr.w	r1, [r5, #140]	@ 0x8c
 8002cd8:	6d53      	ldr	r3, [r2, #84]	@ 0x54
 8002cda:	f423 5340 	bic.w	r3, r3, #12288	@ 0x3000
 8002cde:	430b      	orrs	r3, r1
 8002ce0:	6553      	str	r3, [r2, #84]	@ 0x54
 8002ce2:	682b      	ldr	r3, [r5, #0]
 8002ce4:	06da      	lsls	r2, r3, #27
 8002ce6:	d514      	bpl.n	8002d12 <HAL_RCCEx_PeriphCLKConfig+0x62e>
 8002ce8:	f8d5 30a0 	ldr.w	r3, [r5, #160]	@ 0xa0
 8002cec:	f5b3 7f80 	cmp.w	r3, #256	@ 0x100
 8002cf0:	d107      	bne.n	8002d02 <HAL_RCCEx_PeriphCLKConfig+0x61e>
 8002cf2:	2102      	movs	r1, #2
 8002cf4:	f105 0028 	add.w	r0, r5, #40	@ 0x28
 8002cf8:	f7ff fc7c 	bl	80025f4 <RCCEx_PLL3_Config>
 8002cfc:	2800      	cmp	r0, #0
 8002cfe:	bf18      	it	ne
 8002d00:	2601      	movne	r6, #1
 8002d02:	4a73      	ldr	r2, [pc, #460]	@ (8002ed0 <HAL_RCCEx_PeriphCLKConfig+0x7ec>)
 8002d04:	f8d5 10a0 	ldr.w	r1, [r5, #160]	@ 0xa0
 8002d08:	6d93      	ldr	r3, [r2, #88]	@ 0x58
 8002d0a:	f423 7340 	bic.w	r3, r3, #768	@ 0x300
 8002d0e:	430b      	orrs	r3, r1
 8002d10:	6593      	str	r3, [r2, #88]	@ 0x58
 8002d12:	682b      	ldr	r3, [r5, #0]
 8002d14:	031b      	lsls	r3, r3, #12
 8002d16:	d51b      	bpl.n	8002d50 <HAL_RCCEx_PeriphCLKConfig+0x66c>
 8002d18:	f8d5 10ac 	ldr.w	r1, [r5, #172]	@ 0xac
 8002d1c:	f5b1 3f80 	cmp.w	r1, #65536	@ 0x10000
 8002d20:	f000 813e 	beq.w	8002fa0 <HAL_RCCEx_PeriphCLKConfig+0x8bc>
 8002d24:	f5b1 3f00 	cmp.w	r1, #131072	@ 0x20000
 8002d28:	d007      	beq.n	8002d3a <HAL_RCCEx_PeriphCLKConfig+0x656>
 8002d2a:	2900      	cmp	r1, #0
 8002d2c:	f040 813e 	bne.w	8002fac <HAL_RCCEx_PeriphCLKConfig+0x8c8>
 8002d30:	f105 0008 	add.w	r0, r5, #8
 8002d34:	f7ff fbe6 	bl	8002504 <RCCEx_PLL2_Config>
 8002d38:	4604      	mov	r4, r0
 8002d3a:	2c00      	cmp	r4, #0
 8002d3c:	f040 8139 	bne.w	8002fb2 <HAL_RCCEx_PeriphCLKConfig+0x8ce>
 8002d40:	4a63      	ldr	r2, [pc, #396]	@ (8002ed0 <HAL_RCCEx_PeriphCLKConfig+0x7ec>)
 8002d42:	f8d5 10ac 	ldr.w	r1, [r5, #172]	@ 0xac
 8002d46:	6d93      	ldr	r3, [r2, #88]	@ 0x58
 8002d48:	f423 3340 	bic.w	r3, r3, #196608	@ 0x30000
 8002d4c:	430b      	orrs	r3, r1
 8002d4e:	6593      	str	r3, [r2, #88]	@ 0x58
 8002d50:	682b      	ldr	r3, [r5, #0]
 8002d52:	035f      	lsls	r7, r3, #13
 8002d54:	d50f      	bpl.n	8002d76 <HAL_RCCEx_PeriphCLKConfig+0x692>
 8002d56:	f8d5 3090 	ldr.w	r3, [r5, #144]	@ 0x90
 8002d5a:	f5b3 1f00 	cmp.w	r3, #2097152	@ 0x200000
 8002d5e:	f000 8139 	beq.w	8002fd4 <HAL_RCCEx_PeriphCLKConfig+0x8f0>
 8002d62:	f5b3 1f40 	cmp.w	r3, #3145728	@ 0x300000
 8002d66:	f000 812b 	beq.w	8002fc0 <HAL_RCCEx_PeriphCLKConfig+0x8dc>
 8002d6a:	f5b3 1f80 	cmp.w	r3, #1048576	@ 0x100000
 8002d6e:	f000 8122 	beq.w	8002fb6 <HAL_RCCEx_PeriphCLKConfig+0x8d2>
 8002d72:	2601      	movs	r6, #1
 8002d74:	4634      	mov	r4, r6
 8002d76:	682b      	ldr	r3, [r5, #0]
 8002d78:	03d8      	lsls	r0, r3, #15
 8002d7a:	d509      	bpl.n	8002d90 <HAL_RCCEx_PeriphCLKConfig+0x6ac>
 8002d7c:	6d2b      	ldr	r3, [r5, #80]	@ 0x50
 8002d7e:	2b00      	cmp	r3, #0
 8002d80:	f000 8131 	beq.w	8002fe6 <HAL_RCCEx_PeriphCLKConfig+0x902>
 8002d84:	f5b3 3f80 	cmp.w	r3, #65536	@ 0x10000
 8002d88:	f000 813b 	beq.w	8003002 <HAL_RCCEx_PeriphCLKConfig+0x91e>
 8002d8c:	2601      	movs	r6, #1
 8002d8e:	4634      	mov	r4, r6
 8002d90:	682b      	ldr	r3, [r5, #0]
 8002d92:	0099      	lsls	r1, r3, #2
 8002d94:	d507      	bpl.n	8002da6 <HAL_RCCEx_PeriphCLKConfig+0x6c2>
 8002d96:	2102      	movs	r1, #2
 8002d98:	f105 0028 	add.w	r0, r5, #40	@ 0x28
 8002d9c:	f7ff fc2a 	bl	80025f4 <RCCEx_PLL3_Config>
 8002da0:	2800      	cmp	r0, #0
 8002da2:	bf18      	it	ne
 8002da4:	2601      	movne	r6, #1
 8002da6:	e9d5 3100 	ldrd	r3, r1, [r5]
 8002daa:	039a      	lsls	r2, r3, #14
 8002dac:	f140 8141 	bpl.w	8003032 <HAL_RCCEx_PeriphCLKConfig+0x94e>
 8002db0:	f8d5 0088 	ldr.w	r0, [r5, #136]	@ 0x88
 8002db4:	f5b0 7f80 	cmp.w	r0, #256	@ 0x100
 8002db8:	f000 813d 	beq.w	8003036 <HAL_RCCEx_PeriphCLKConfig+0x952>
 8002dbc:	f200 812a 	bhi.w	8003014 <HAL_RCCEx_PeriphCLKConfig+0x930>
 8002dc0:	2800      	cmp	r0, #0
 8002dc2:	f000 812d 	beq.w	8003020 <HAL_RCCEx_PeriphCLKConfig+0x93c>
 8002dc6:	2401      	movs	r4, #1
 8002dc8:	02df      	lsls	r7, r3, #11
 8002dca:	d506      	bpl.n	8002dda <HAL_RCCEx_PeriphCLKConfig+0x6f6>
 8002dcc:	4840      	ldr	r0, [pc, #256]	@ (8002ed0 <HAL_RCCEx_PeriphCLKConfig+0x7ec>)
 8002dce:	6fee      	ldr	r6, [r5, #124]	@ 0x7c
 8002dd0:	6d02      	ldr	r2, [r0, #80]	@ 0x50
 8002dd2:	f022 4200 	bic.w	r2, r2, #2147483648	@ 0x80000000
 8002dd6:	4332      	orrs	r2, r6
 8002dd8:	6502      	str	r2, [r0, #80]	@ 0x50
 8002dda:	029e      	lsls	r6, r3, #10
 8002ddc:	d506      	bpl.n	8002dec <HAL_RCCEx_PeriphCLKConfig+0x708>
 8002dde:	483c      	ldr	r0, [pc, #240]	@ (8002ed0 <HAL_RCCEx_PeriphCLKConfig+0x7ec>)
 8002de0:	6f2e      	ldr	r6, [r5, #112]	@ 0x70
 8002de2:	6d02      	ldr	r2, [r0, #80]	@ 0x50
 8002de4:	f022 7280 	bic.w	r2, r2, #16777216	@ 0x1000000
 8002de8:	4332      	orrs	r2, r6
 8002dea:	6502      	str	r2, [r0, #80]	@ 0x50
 8002dec:	0518      	lsls	r0, r3, #20
 8002dee:	d506      	bpl.n	8002dfe <HAL_RCCEx_PeriphCLKConfig+0x71a>
 8002df0:	4837      	ldr	r0, [pc, #220]	@ (8002ed0 <HAL_RCCEx_PeriphCLKConfig+0x7ec>)
 8002df2:	6f6e      	ldr	r6, [r5, #116]	@ 0x74
 8002df4:	6d82      	ldr	r2, [r0, #88]	@ 0x58
 8002df6:	f022 6200 	bic.w	r2, r2, #134217728	@ 0x8000000
 8002dfa:	4332      	orrs	r2, r6
 8002dfc:	6582      	str	r2, [r0, #88]	@ 0x58
 8002dfe:	005a      	lsls	r2, r3, #1
 8002e00:	d509      	bpl.n	8002e16 <HAL_RCCEx_PeriphCLKConfig+0x732>
 8002e02:	4a33      	ldr	r2, [pc, #204]	@ (8002ed0 <HAL_RCCEx_PeriphCLKConfig+0x7ec>)
 8002e04:	6910      	ldr	r0, [r2, #16]
 8002e06:	f420 4000 	bic.w	r0, r0, #32768	@ 0x8000
 8002e0a:	6110      	str	r0, [r2, #16]
 8002e0c:	6910      	ldr	r0, [r2, #16]
 8002e0e:	f8d5 60b8 	ldr.w	r6, [r5, #184]	@ 0xb8
 8002e12:	4330      	orrs	r0, r6
 8002e14:	6110      	str	r0, [r2, #16]
 8002e16:	2b00      	cmp	r3, #0
 8002e18:	da06      	bge.n	8002e28 <HAL_RCCEx_PeriphCLKConfig+0x744>
 8002e1a:	482d      	ldr	r0, [pc, #180]	@ (8002ed0 <HAL_RCCEx_PeriphCLKConfig+0x7ec>)
 8002e1c:	6d6e      	ldr	r6, [r5, #84]	@ 0x54
 8002e1e:	6cc2      	ldr	r2, [r0, #76]	@ 0x4c
 8002e20:	f022 5240 	bic.w	r2, r2, #805306368	@ 0x30000000
 8002e24:	4332      	orrs	r2, r6
 8002e26:	64c2      	str	r2, [r0, #76]	@ 0x4c
 8002e28:	021f      	lsls	r7, r3, #8
 8002e2a:	d507      	bpl.n	8002e3c <HAL_RCCEx_PeriphCLKConfig+0x758>
 8002e2c:	4a28      	ldr	r2, [pc, #160]	@ (8002ed0 <HAL_RCCEx_PeriphCLKConfig+0x7ec>)
 8002e2e:	f8d5 0094 	ldr.w	r0, [r5, #148]	@ 0x94
 8002e32:	6d53      	ldr	r3, [r2, #84]	@ 0x54
 8002e34:	f423 0340 	bic.w	r3, r3, #12582912	@ 0xc00000
 8002e38:	4303      	orrs	r3, r0
 8002e3a:	6553      	str	r3, [r2, #84]	@ 0x54
 8002e3c:	07ce      	lsls	r6, r1, #31
 8002e3e:	d506      	bpl.n	8002e4e <HAL_RCCEx_PeriphCLKConfig+0x76a>
 8002e40:	2100      	movs	r1, #0
 8002e42:	f105 0008 	add.w	r0, r5, #8
 8002e46:	f7ff fb5d 	bl	8002504 <RCCEx_PLL2_Config>
 8002e4a:	4607      	mov	r7, r0
 8002e4c:	b900      	cbnz	r0, 8002e50 <HAL_RCCEx_PeriphCLKConfig+0x76c>
 8002e4e:	4627      	mov	r7, r4
 8002e50:	686b      	ldr	r3, [r5, #4]
 8002e52:	079c      	lsls	r4, r3, #30
 8002e54:	d506      	bpl.n	8002e64 <HAL_RCCEx_PeriphCLKConfig+0x780>
 8002e56:	2101      	movs	r1, #1
 8002e58:	f105 0008 	add.w	r0, r5, #8
 8002e5c:	f7ff fb52 	bl	8002504 <RCCEx_PLL2_Config>
 8002e60:	4606      	mov	r6, r0
 8002e62:	b900      	cbnz	r0, 8002e66 <HAL_RCCEx_PeriphCLKConfig+0x782>
 8002e64:	463e      	mov	r6, r7
 8002e66:	686b      	ldr	r3, [r5, #4]
 8002e68:	0758      	lsls	r0, r3, #29
 8002e6a:	d506      	bpl.n	8002e7a <HAL_RCCEx_PeriphCLKConfig+0x796>
 8002e6c:	2102      	movs	r1, #2
 8002e6e:	f105 0008 	add.w	r0, r5, #8
 8002e72:	f7ff fb47 	bl	8002504 <RCCEx_PLL2_Config>
 8002e76:	4604      	mov	r4, r0
 8002e78:	b900      	cbnz	r0, 8002e7c <HAL_RCCEx_PeriphCLKConfig+0x798>
 8002e7a:	4634      	mov	r4, r6
 8002e7c:	686b      	ldr	r3, [r5, #4]
 8002e7e:	0719      	lsls	r1, r3, #28
 8002e80:	d506      	bpl.n	8002e90 <HAL_RCCEx_PeriphCLKConfig+0x7ac>
 8002e82:	2100      	movs	r1, #0
 8002e84:	f105 0028 	add.w	r0, r5, #40	@ 0x28
 8002e88:	f7ff fbb4 	bl	80025f4 <RCCEx_PLL3_Config>
 8002e8c:	4606      	mov	r6, r0
 8002e8e:	b900      	cbnz	r0, 8002e92 <HAL_RCCEx_PeriphCLKConfig+0x7ae>
 8002e90:	4626      	mov	r6, r4
 8002e92:	686b      	ldr	r3, [r5, #4]
 8002e94:	06da      	lsls	r2, r3, #27
 8002e96:	d506      	bpl.n	8002ea6 <HAL_RCCEx_PeriphCLKConfig+0x7c2>
 8002e98:	2101      	movs	r1, #1
 8002e9a:	f105 0028 	add.w	r0, r5, #40	@ 0x28
 8002e9e:	f7ff fba9 	bl	80025f4 <RCCEx_PLL3_Config>
 8002ea2:	4604      	mov	r4, r0
 8002ea4:	b900      	cbnz	r0, 8002ea8 <HAL_RCCEx_PeriphCLKConfig+0x7c4>
 8002ea6:	4634      	mov	r4, r6
 8002ea8:	686b      	ldr	r3, [r5, #4]
 8002eaa:	069b      	lsls	r3, r3, #26
 8002eac:	f100 80c9 	bmi.w	8003042 <HAL_RCCEx_PeriphCLKConfig+0x95e>
 8002eb0:	1e20      	subs	r0, r4, #0
 8002eb2:	bf18      	it	ne
 8002eb4:	2001      	movne	r0, #1
 8002eb6:	e8bd 83f8 	ldmia.w	sp!, {r3, r4, r5, r6, r7, r8, r9, pc}
 8002eba:	2101      	movs	r1, #1
 8002ebc:	f105 0028 	add.w	r0, r5, #40	@ 0x28
 8002ec0:	f7ff fb98 	bl	80025f4 <RCCEx_PLL3_Config>
 8002ec4:	e6ad      	b.n	8002c22 <HAL_RCCEx_PeriphCLKConfig+0x53e>
 8002ec6:	2601      	movs	r6, #1
 8002ec8:	4634      	mov	r4, r6
 8002eca:	e6b6      	b.n	8002c3a <HAL_RCCEx_PeriphCLKConfig+0x556>
 8002ecc:	4626      	mov	r6, r4
 8002ece:	e6b4      	b.n	8002c3a <HAL_RCCEx_PeriphCLKConfig+0x556>
 8002ed0:	58024400 	.word	0x58024400
 8002ed4:	f023 5280 	bic.w	r2, r3, #268435456	@ 0x10000000
 8002ed8:	f1b2 4f80 	cmp.w	r2, #1073741824	@ 0x40000000
 8002edc:	d003      	beq.n	8002ee6 <HAL_RCCEx_PeriphCLKConfig+0x802>
 8002ede:	f1b3 5f40 	cmp.w	r3, #805306368	@ 0x30000000
 8002ee2:	f47f aebc 	bne.w	8002c5e <HAL_RCCEx_PeriphCLKConfig+0x57a>
 8002ee6:	b9ac      	cbnz	r4, 8002f14 <HAL_RCCEx_PeriphCLKConfig+0x830>
 8002ee8:	4a5b      	ldr	r2, [pc, #364]	@ (8003058 <HAL_RCCEx_PeriphCLKConfig+0x974>)
 8002eea:	f8d5 1098 	ldr.w	r1, [r5, #152]	@ 0x98
 8002eee:	6d53      	ldr	r3, [r2, #84]	@ 0x54
 8002ef0:	f023 43e0 	bic.w	r3, r3, #1879048192	@ 0x70000000
 8002ef4:	430b      	orrs	r3, r1
 8002ef6:	6553      	str	r3, [r2, #84]	@ 0x54
 8002ef8:	e6b3      	b.n	8002c62 <HAL_RCCEx_PeriphCLKConfig+0x57e>
 8002efa:	2100      	movs	r1, #0
 8002efc:	f105 0008 	add.w	r0, r5, #8
 8002f00:	f7ff fb00 	bl	8002504 <RCCEx_PLL2_Config>
 8002f04:	4604      	mov	r4, r0
 8002f06:	e7ee      	b.n	8002ee6 <HAL_RCCEx_PeriphCLKConfig+0x802>
 8002f08:	2102      	movs	r1, #2
 8002f0a:	f105 0028 	add.w	r0, r5, #40	@ 0x28
 8002f0e:	f7ff fb71 	bl	80025f4 <RCCEx_PLL3_Config>
 8002f12:	e7f7      	b.n	8002f04 <HAL_RCCEx_PeriphCLKConfig+0x820>
 8002f14:	4626      	mov	r6, r4
 8002f16:	e6a4      	b.n	8002c62 <HAL_RCCEx_PeriphCLKConfig+0x57e>
 8002f18:	f423 6280 	bic.w	r2, r3, #1024	@ 0x400
 8002f1c:	f5b2 5f80 	cmp.w	r2, #4096	@ 0x1000
 8002f20:	d003      	beq.n	8002f2a <HAL_RCCEx_PeriphCLKConfig+0x846>
 8002f22:	f5b3 6f40 	cmp.w	r3, #3072	@ 0xc00
 8002f26:	f47f aeae 	bne.w	8002c86 <HAL_RCCEx_PeriphCLKConfig+0x5a2>
 8002f2a:	b9ac      	cbnz	r4, 8002f58 <HAL_RCCEx_PeriphCLKConfig+0x874>
 8002f2c:	4a4a      	ldr	r2, [pc, #296]	@ (8003058 <HAL_RCCEx_PeriphCLKConfig+0x974>)
 8002f2e:	f8d5 10a4 	ldr.w	r1, [r5, #164]	@ 0xa4
 8002f32:	6d93      	ldr	r3, [r2, #88]	@ 0x58
 8002f34:	f423 53e0 	bic.w	r3, r3, #7168	@ 0x1c00
 8002f38:	430b      	orrs	r3, r1
 8002f3a:	6593      	str	r3, [r2, #88]	@ 0x58
 8002f3c:	e6a5      	b.n	8002c8a <HAL_RCCEx_PeriphCLKConfig+0x5a6>
 8002f3e:	2100      	movs	r1, #0
 8002f40:	f105 0008 	add.w	r0, r5, #8
 8002f44:	f7ff fade 	bl	8002504 <RCCEx_PLL2_Config>
 8002f48:	4604      	mov	r4, r0
 8002f4a:	e7ee      	b.n	8002f2a <HAL_RCCEx_PeriphCLKConfig+0x846>
 8002f4c:	2102      	movs	r1, #2
 8002f4e:	f105 0028 	add.w	r0, r5, #40	@ 0x28
 8002f52:	f7ff fb4f 	bl	80025f4 <RCCEx_PLL3_Config>
 8002f56:	e7f7      	b.n	8002f48 <HAL_RCCEx_PeriphCLKConfig+0x864>
 8002f58:	4626      	mov	r6, r4
 8002f5a:	e696      	b.n	8002c8a <HAL_RCCEx_PeriphCLKConfig+0x5a6>
 8002f5c:	f423 5200 	bic.w	r2, r3, #8192	@ 0x2000
 8002f60:	f5b2 4f00 	cmp.w	r2, #32768	@ 0x8000
 8002f64:	d003      	beq.n	8002f6e <HAL_RCCEx_PeriphCLKConfig+0x88a>
 8002f66:	f5b3 4fc0 	cmp.w	r3, #24576	@ 0x6000
 8002f6a:	f47f aea0 	bne.w	8002cae <HAL_RCCEx_PeriphCLKConfig+0x5ca>
 8002f6e:	b9ac      	cbnz	r4, 8002f9c <HAL_RCCEx_PeriphCLKConfig+0x8b8>
 8002f70:	4a39      	ldr	r2, [pc, #228]	@ (8003058 <HAL_RCCEx_PeriphCLKConfig+0x974>)
 8002f72:	f8d5 10a8 	ldr.w	r1, [r5, #168]	@ 0xa8
 8002f76:	6d93      	ldr	r3, [r2, #88]	@ 0x58
 8002f78:	f423 4360 	bic.w	r3, r3, #57344	@ 0xe000
 8002f7c:	430b      	orrs	r3, r1
 8002f7e:	6593      	str	r3, [r2, #88]	@ 0x58
 8002f80:	e697      	b.n	8002cb2 <HAL_RCCEx_PeriphCLKConfig+0x5ce>
 8002f82:	2100      	movs	r1, #0
 8002f84:	f105 0008 	add.w	r0, r5, #8
 8002f88:	f7ff fabc 	bl	8002504 <RCCEx_PLL2_Config>
 8002f8c:	4604      	mov	r4, r0
 8002f8e:	e7ee      	b.n	8002f6e <HAL_RCCEx_PeriphCLKConfig+0x88a>
 8002f90:	2102      	movs	r1, #2
 8002f92:	f105 0028 	add.w	r0, r5, #40	@ 0x28
 8002f96:	f7ff fb2d 	bl	80025f4 <RCCEx_PLL3_Config>
 8002f9a:	e7f7      	b.n	8002f8c <HAL_RCCEx_PeriphCLKConfig+0x8a8>
 8002f9c:	4626      	mov	r6, r4
 8002f9e:	e688      	b.n	8002cb2 <HAL_RCCEx_PeriphCLKConfig+0x5ce>
 8002fa0:	2102      	movs	r1, #2
 8002fa2:	f105 0028 	add.w	r0, r5, #40	@ 0x28
 8002fa6:	f7ff fb25 	bl	80025f4 <RCCEx_PLL3_Config>
 8002faa:	e6c5      	b.n	8002d38 <HAL_RCCEx_PeriphCLKConfig+0x654>
 8002fac:	2601      	movs	r6, #1
 8002fae:	4634      	mov	r4, r6
 8002fb0:	e6ce      	b.n	8002d50 <HAL_RCCEx_PeriphCLKConfig+0x66c>
 8002fb2:	4626      	mov	r6, r4
 8002fb4:	e6cc      	b.n	8002d50 <HAL_RCCEx_PeriphCLKConfig+0x66c>
 8002fb6:	4a28      	ldr	r2, [pc, #160]	@ (8003058 <HAL_RCCEx_PeriphCLKConfig+0x974>)
 8002fb8:	6ad3      	ldr	r3, [r2, #44]	@ 0x2c
 8002fba:	f443 3300 	orr.w	r3, r3, #131072	@ 0x20000
 8002fbe:	62d3      	str	r3, [r2, #44]	@ 0x2c
 8002fc0:	b97c      	cbnz	r4, 8002fe2 <HAL_RCCEx_PeriphCLKConfig+0x8fe>
 8002fc2:	4a25      	ldr	r2, [pc, #148]	@ (8003058 <HAL_RCCEx_PeriphCLKConfig+0x974>)
 8002fc4:	f8d5 1090 	ldr.w	r1, [r5, #144]	@ 0x90
 8002fc8:	6d53      	ldr	r3, [r2, #84]	@ 0x54
 8002fca:	f423 1340 	bic.w	r3, r3, #3145728	@ 0x300000
 8002fce:	430b      	orrs	r3, r1
 8002fd0:	6553      	str	r3, [r2, #84]	@ 0x54
 8002fd2:	e6d0      	b.n	8002d76 <HAL_RCCEx_PeriphCLKConfig+0x692>
 8002fd4:	2101      	movs	r1, #1
 8002fd6:	f105 0028 	add.w	r0, r5, #40	@ 0x28
 8002fda:	f7ff fb0b 	bl	80025f4 <RCCEx_PLL3_Config>
 8002fde:	4604      	mov	r4, r0
 8002fe0:	e7ee      	b.n	8002fc0 <HAL_RCCEx_PeriphCLKConfig+0x8dc>
 8002fe2:	4626      	mov	r6, r4
 8002fe4:	e6c7      	b.n	8002d76 <HAL_RCCEx_PeriphCLKConfig+0x692>
 8002fe6:	4a1c      	ldr	r2, [pc, #112]	@ (8003058 <HAL_RCCEx_PeriphCLKConfig+0x974>)
 8002fe8:	6ad3      	ldr	r3, [r2, #44]	@ 0x2c
 8002fea:	f443 3300 	orr.w	r3, r3, #131072	@ 0x20000
 8002fee:	62d3      	str	r3, [r2, #44]	@ 0x2c
 8002ff0:	b974      	cbnz	r4, 8003010 <HAL_RCCEx_PeriphCLKConfig+0x92c>
 8002ff2:	4a19      	ldr	r2, [pc, #100]	@ (8003058 <HAL_RCCEx_PeriphCLKConfig+0x974>)
 8002ff4:	6d29      	ldr	r1, [r5, #80]	@ 0x50
 8002ff6:	6cd3      	ldr	r3, [r2, #76]	@ 0x4c
 8002ff8:	f423 3380 	bic.w	r3, r3, #65536	@ 0x10000
 8002ffc:	430b      	orrs	r3, r1
 8002ffe:	64d3      	str	r3, [r2, #76]	@ 0x4c
 8003000:	e6c6      	b.n	8002d90 <HAL_RCCEx_PeriphCLKConfig+0x6ac>
 8003002:	2102      	movs	r1, #2
 8003004:	f105 0008 	add.w	r0, r5, #8
 8003008:	f7ff fa7c 	bl	8002504 <RCCEx_PLL2_Config>
 800300c:	4604      	mov	r4, r0
 800300e:	e7ef      	b.n	8002ff0 <HAL_RCCEx_PeriphCLKConfig+0x90c>
 8003010:	4626      	mov	r6, r4
 8003012:	e6bd      	b.n	8002d90 <HAL_RCCEx_PeriphCLKConfig+0x6ac>
 8003014:	f420 7280 	bic.w	r2, r0, #256	@ 0x100
 8003018:	f5b2 7f00 	cmp.w	r2, #512	@ 0x200
 800301c:	f47f aed3 	bne.w	8002dc6 <HAL_RCCEx_PeriphCLKConfig+0x6e2>
 8003020:	2c00      	cmp	r4, #0
 8003022:	f47f aed1 	bne.w	8002dc8 <HAL_RCCEx_PeriphCLKConfig+0x6e4>
 8003026:	4c0c      	ldr	r4, [pc, #48]	@ (8003058 <HAL_RCCEx_PeriphCLKConfig+0x974>)
 8003028:	6d62      	ldr	r2, [r4, #84]	@ 0x54
 800302a:	f422 7240 	bic.w	r2, r2, #768	@ 0x300
 800302e:	4302      	orrs	r2, r0
 8003030:	6562      	str	r2, [r4, #84]	@ 0x54
 8003032:	4634      	mov	r4, r6
 8003034:	e6c8      	b.n	8002dc8 <HAL_RCCEx_PeriphCLKConfig+0x6e4>
 8003036:	4f08      	ldr	r7, [pc, #32]	@ (8003058 <HAL_RCCEx_PeriphCLKConfig+0x974>)
 8003038:	6afa      	ldr	r2, [r7, #44]	@ 0x2c
 800303a:	f442 3200 	orr.w	r2, r2, #131072	@ 0x20000
 800303e:	62fa      	str	r2, [r7, #44]	@ 0x2c
 8003040:	e7ee      	b.n	8003020 <HAL_RCCEx_PeriphCLKConfig+0x93c>
 8003042:	2102      	movs	r1, #2
 8003044:	f105 0028 	add.w	r0, r5, #40	@ 0x28
 8003048:	f7ff fad4 	bl	80025f4 <RCCEx_PLL3_Config>
 800304c:	2800      	cmp	r0, #0
 800304e:	f43f af2f 	beq.w	8002eb0 <HAL_RCCEx_PeriphCLKConfig+0x7cc>
 8003052:	2001      	movs	r0, #1
 8003054:	e72f      	b.n	8002eb6 <HAL_RCCEx_PeriphCLKConfig+0x7d2>
 8003056:	bf00      	nop
 8003058:	58024400 	.word	0x58024400

0800305c <HAL_RCCEx_GetD3PCLK1Freq>:
 800305c:	b508      	push	{r3, lr}
 800305e:	f7ff fa0b 	bl	8002478 <HAL_RCC_GetHCLKFreq>
 8003062:	4b05      	ldr	r3, [pc, #20]	@ (8003078 <HAL_RCCEx_GetD3PCLK1Freq+0x1c>)
 8003064:	4a05      	ldr	r2, [pc, #20]	@ (800307c <HAL_RCCEx_GetD3PCLK1Freq+0x20>)
 8003066:	6a1b      	ldr	r3, [r3, #32]
 8003068:	f3c3 1302 	ubfx	r3, r3, #4, #3
 800306c:	5cd3      	ldrb	r3, [r2, r3]
 800306e:	f003 031f 	and.w	r3, r3, #31
 8003072:	40d8      	lsrs	r0, r3
 8003074:	bd08      	pop	{r3, pc}
 8003076:	bf00      	nop
 8003078:	58024400 	.word	0x58024400
 800307c:	08004700 	.word	0x08004700

08003080 <HAL_RCCEx_GetPLL2ClockFreq>:
 8003080:	494f      	ldr	r1, [pc, #316]	@ (80031c0 <HAL_RCCEx_GetPLL2ClockFreq+0x140>)
 8003082:	b570      	push	{r4, r5, r6, lr}
 8003084:	6a8c      	ldr	r4, [r1, #40]	@ 0x28
 8003086:	6a8e      	ldr	r6, [r1, #40]	@ 0x28
 8003088:	6acd      	ldr	r5, [r1, #44]	@ 0x2c
 800308a:	f416 3f7c 	tst.w	r6, #258048	@ 0x3f000
 800308e:	f3c6 3305 	ubfx	r3, r6, #12, #6
 8003092:	6bca      	ldr	r2, [r1, #60]	@ 0x3c
 8003094:	f000 8090 	beq.w	80031b8 <HAL_RCCEx_GetPLL2ClockFreq+0x138>
 8003098:	ee07 3a90 	vmov	s15, r3
 800309c:	f3c2 03cc 	ubfx	r3, r2, #3, #13
 80030a0:	f3c5 1200 	ubfx	r2, r5, #4, #1
 80030a4:	f004 0403 	and.w	r4, r4, #3
 80030a8:	eeb8 7ae7 	vcvt.f32.s32	s14, s15
 80030ac:	4353      	muls	r3, r2
 80030ae:	2c01      	cmp	r4, #1
 80030b0:	eeb7 6a00 	vmov.f32	s12, #112	@ 0x3f800000  1.0
 80030b4:	ee06 3a90 	vmov	s13, r3
 80030b8:	eefa 6ae9 	vcvt.f32.s32	s13, s13, #13
 80030bc:	d06e      	beq.n	800319c <HAL_RCCEx_GetPLL2ClockFreq+0x11c>
 80030be:	2c02      	cmp	r4, #2
 80030c0:	d05e      	beq.n	8003180 <HAL_RCCEx_GetPLL2ClockFreq+0x100>
 80030c2:	2c00      	cmp	r4, #0
 80030c4:	d16a      	bne.n	800319c <HAL_RCCEx_GetPLL2ClockFreq+0x11c>
 80030c6:	680b      	ldr	r3, [r1, #0]
 80030c8:	069b      	lsls	r3, r3, #26
 80030ca:	d547      	bpl.n	800315c <HAL_RCCEx_GetPLL2ClockFreq+0xdc>
 80030cc:	680a      	ldr	r2, [r1, #0]
 80030ce:	6b8b      	ldr	r3, [r1, #56]	@ 0x38
 80030d0:	f3c2 01c1 	ubfx	r1, r2, #3, #2
 80030d4:	4a3b      	ldr	r2, [pc, #236]	@ (80031c4 <HAL_RCCEx_GetPLL2ClockFreq+0x144>)
 80030d6:	f3c3 0308 	ubfx	r3, r3, #0, #9
 80030da:	40ca      	lsrs	r2, r1
 80030dc:	ee07 2a90 	vmov	s15, r2
 80030e0:	eef8 5ae7 	vcvt.f32.s32	s11, s15
 80030e4:	eec5 7a87 	vdiv.f32	s15, s11, s14
 80030e8:	ee07 3a10 	vmov	s14, r3
 80030ec:	eeb8 7ac7 	vcvt.f32.s32	s14, s14
 80030f0:	ee37 7a26 	vadd.f32	s14, s14, s13
 80030f4:	ee37 7a06 	vadd.f32	s14, s14, s12
 80030f8:	ee67 7a87 	vmul.f32	s15, s15, s14
 80030fc:	4a30      	ldr	r2, [pc, #192]	@ (80031c0 <HAL_RCCEx_GetPLL2ClockFreq+0x140>)
 80030fe:	6b93      	ldr	r3, [r2, #56]	@ 0x38
 8003100:	f3c3 2346 	ubfx	r3, r3, #9, #7
 8003104:	ee07 3a10 	vmov	s14, r3
 8003108:	eeb8 7ac7 	vcvt.f32.s32	s14, s14
 800310c:	ee37 7a06 	vadd.f32	s14, s14, s12
 8003110:	eec7 6a87 	vdiv.f32	s13, s15, s14
 8003114:	eefc 6ae6 	vcvt.u32.f32	s13, s13
 8003118:	edc0 6a00 	vstr	s13, [r0]
 800311c:	6b93      	ldr	r3, [r2, #56]	@ 0x38
 800311e:	f3c3 4306 	ubfx	r3, r3, #16, #7
 8003122:	ee07 3a10 	vmov	s14, r3
 8003126:	eeb8 7ac7 	vcvt.f32.s32	s14, s14
 800312a:	ee37 7a06 	vadd.f32	s14, s14, s12
 800312e:	eec7 6a87 	vdiv.f32	s13, s15, s14
 8003132:	eefc 6ae6 	vcvt.u32.f32	s13, s13
 8003136:	edc0 6a01 	vstr	s13, [r0, #4]
 800313a:	6b93      	ldr	r3, [r2, #56]	@ 0x38
 800313c:	f3c3 6306 	ubfx	r3, r3, #24, #7
 8003140:	ee06 3a90 	vmov	s13, r3
 8003144:	eef8 6ae6 	vcvt.f32.s32	s13, s13
 8003148:	ee76 6a86 	vadd.f32	s13, s13, s12
 800314c:	ee87 7aa6 	vdiv.f32	s14, s15, s13
 8003150:	eefc 7ac7 	vcvt.u32.f32	s15, s14
 8003154:	ee17 3a90 	vmov	r3, s15
 8003158:	6083      	str	r3, [r0, #8]
 800315a:	bd70      	pop	{r4, r5, r6, pc}
 800315c:	6b8b      	ldr	r3, [r1, #56]	@ 0x38
 800315e:	eddf 5a1a 	vldr	s11, [pc, #104]	@ 80031c8 <HAL_RCCEx_GetPLL2ClockFreq+0x148>
 8003162:	f3c3 0308 	ubfx	r3, r3, #0, #9
 8003166:	ee07 3a90 	vmov	s15, r3
 800316a:	eef8 7ae7 	vcvt.f32.s32	s15, s15
 800316e:	ee77 7aa6 	vadd.f32	s15, s15, s13
 8003172:	ee77 7a86 	vadd.f32	s15, s15, s12
 8003176:	eec5 6a87 	vdiv.f32	s13, s11, s14
 800317a:	ee67 7aa6 	vmul.f32	s15, s15, s13
 800317e:	e7bd      	b.n	80030fc <HAL_RCCEx_GetPLL2ClockFreq+0x7c>
 8003180:	6b8b      	ldr	r3, [r1, #56]	@ 0x38
 8003182:	eddf 5a12 	vldr	s11, [pc, #72]	@ 80031cc <HAL_RCCEx_GetPLL2ClockFreq+0x14c>
 8003186:	f3c3 0308 	ubfx	r3, r3, #0, #9
 800318a:	ee07 3a90 	vmov	s15, r3
 800318e:	eef8 7ae7 	vcvt.f32.s32	s15, s15
 8003192:	ee77 7aa6 	vadd.f32	s15, s15, s13
 8003196:	ee77 7a86 	vadd.f32	s15, s15, s12
 800319a:	e7ec      	b.n	8003176 <HAL_RCCEx_GetPLL2ClockFreq+0xf6>
 800319c:	6b8b      	ldr	r3, [r1, #56]	@ 0x38
 800319e:	eddf 5a0c 	vldr	s11, [pc, #48]	@ 80031d0 <HAL_RCCEx_GetPLL2ClockFreq+0x150>
 80031a2:	f3c3 0308 	ubfx	r3, r3, #0, #9
 80031a6:	ee07 3a90 	vmov	s15, r3
 80031aa:	eef8 7ae7 	vcvt.f32.s32	s15, s15
 80031ae:	ee77 7aa6 	vadd.f32	s15, s15, s13
 80031b2:	ee77 7a86 	vadd.f32	s15, s15, s12
 80031b6:	e7de      	b.n	8003176 <HAL_RCCEx_GetPLL2ClockFreq+0xf6>
 80031b8:	e9c0 3300 	strd	r3, r3, [r0]
 80031bc:	e7cc      	b.n	8003158 <HAL_RCCEx_GetPLL2ClockFreq+0xd8>
 80031be:	bf00      	nop
 80031c0:	58024400 	.word	0x58024400
 80031c4:	03d09000 	.word	0x03d09000
 80031c8:	4c742400 	.word	0x4c742400
 80031cc:	4af42400 	.word	0x4af42400
 80031d0:	4a742400 	.word	0x4a742400

080031d4 <HAL_RCCEx_GetPLL3ClockFreq>:
 80031d4:	494f      	ldr	r1, [pc, #316]	@ (8003314 <HAL_RCCEx_GetPLL3ClockFreq+0x140>)
 80031d6:	b570      	push	{r4, r5, r6, lr}
 80031d8:	6a8c      	ldr	r4, [r1, #40]	@ 0x28
 80031da:	6a8e      	ldr	r6, [r1, #40]	@ 0x28
 80031dc:	6acd      	ldr	r5, [r1, #44]	@ 0x2c
 80031de:	f016 7f7c 	tst.w	r6, #66060288	@ 0x3f00000
 80031e2:	f3c6 5305 	ubfx	r3, r6, #20, #6
 80031e6:	6c4a      	ldr	r2, [r1, #68]	@ 0x44
 80031e8:	f000 8090 	beq.w	800330c <HAL_RCCEx_GetPLL3ClockFreq+0x138>
 80031ec:	ee07 3a90 	vmov	s15, r3
 80031f0:	f3c2 03cc 	ubfx	r3, r2, #3, #13
 80031f4:	f3c5 2200 	ubfx	r2, r5, #8, #1
 80031f8:	f004 0403 	and.w	r4, r4, #3
 80031fc:	eeb8 7ae7 	vcvt.f32.s32	s14, s15
 8003200:	4353      	muls	r3, r2
 8003202:	2c01      	cmp	r4, #1
 8003204:	eeb7 6a00 	vmov.f32	s12, #112	@ 0x3f800000  1.0
 8003208:	ee06 3a90 	vmov	s13, r3
 800320c:	eefa 6ae9 	vcvt.f32.s32	s13, s13, #13
 8003210:	d06e      	beq.n	80032f0 <HAL_RCCEx_GetPLL3ClockFreq+0x11c>
 8003212:	2c02      	cmp	r4, #2
 8003214:	d05e      	beq.n	80032d4 <HAL_RCCEx_GetPLL3ClockFreq+0x100>
 8003216:	2c00      	cmp	r4, #0
 8003218:	d16a      	bne.n	80032f0 <HAL_RCCEx_GetPLL3ClockFreq+0x11c>
 800321a:	680b      	ldr	r3, [r1, #0]
 800321c:	069b      	lsls	r3, r3, #26
 800321e:	d547      	bpl.n	80032b0 <HAL_RCCEx_GetPLL3ClockFreq+0xdc>
 8003220:	680a      	ldr	r2, [r1, #0]
 8003222:	6c0b      	ldr	r3, [r1, #64]	@ 0x40
 8003224:	f3c2 01c1 	ubfx	r1, r2, #3, #2
 8003228:	4a3b      	ldr	r2, [pc, #236]	@ (8003318 <HAL_RCCEx_GetPLL3ClockFreq+0x144>)
 800322a:	f3c3 0308 	ubfx	r3, r3, #0, #9
 800322e:	40ca      	lsrs	r2, r1
 8003230:	ee07 2a90 	vmov	s15, r2
 8003234:	eef8 5ae7 	vcvt.f32.s32	s11, s15
 8003238:	eec5 7a87 	vdiv.f32	s15, s11, s14
 800323c:	ee07 3a10 	vmov	s14, r3
 8003240:	eeb8 7ac7 	vcvt.f32.s32	s14, s14
 8003244:	ee37 7a26 	vadd.f32	s14, s14, s13
 8003248:	ee37 7a06 	vadd.f32	s14, s14, s12
 800324c:	ee67 7a87 	vmul.f32	s15, s15, s14
 8003250:	4a30      	ldr	r2, [pc, #192]	@ (8003314 <HAL_RCCEx_GetPLL3ClockFreq+0x140>)
 8003252:	6c13      	ldr	r3, [r2, #64]	@ 0x40
 8003254:	f3c3 2346 	ubfx	r3, r3, #9, #7
 8003258:	ee07 3a10 	vmov	s14, r3
 800325c:	eeb8 7ac7 	vcvt.f32.s32	s14, s14
 8003260:	ee37 7a06 	vadd.f32	s14, s14, s12
 8003264:	eec7 6a87 	vdiv.f32	s13, s15, s14
 8003268:	eefc 6ae6 	vcvt.u32.f32	s13, s13
 800326c:	edc0 6a00 	vstr	s13, [r0]
 8003270:	6c13      	ldr	r3, [r2, #64]	@ 0x40
 8003272:	f3c3 4306 	ubfx	r3, r3, #16, #7
 8003276:	ee07 3a10 	vmov	s14, r3
 800327a:	eeb8 7ac7 	vcvt.f32.s32	s14, s14
 800327e:	ee37 7a06 	vadd.f32	s14, s14, s12
 8003282:	eec7 6a87 	vdiv.f32	s13, s15, s14
 8003286:	eefc 6ae6 	vcvt.u32.f32	s13, s13
 800328a:	edc0 6a01 	vstr	s13, [r0, #4]
 800328e:	6c13      	ldr	r3, [r2, #64]	@ 0x40
 8003290:	f3c3 6306 	ubfx	r3, r3, #24, #7
 8003294:	ee06 3a90 	vmov	s13, r3
 8003298:	eef8 6ae6 	vcvt.f32.s32	s13, s13
 800329c:	ee76 6a86 	vadd.f32	s13, s13, s12
 80032a0:	ee87 7aa6 	vdiv.f32	s14, s15, s13
 80032a4:	eefc 7ac7 	vcvt.u32.f32	s15, s14
 80032a8:	ee17 3a90 	vmov	r3, s15
 80032ac:	6083      	str	r3, [r0, #8]
 80032ae:	bd70      	pop	{r4, r5, r6, pc}
 80032b0:	6c0b      	ldr	r3, [r1, #64]	@ 0x40
 80032b2:	eddf 5a1a 	vldr	s11, [pc, #104]	@ 800331c <HAL_RCCEx_GetPLL3ClockFreq+0x148>
 80032b6:	f3c3 0308 	ubfx	r3, r3, #0, #9
 80032ba:	ee07 3a90 	vmov	s15, r3
 80032be:	eef8 7ae7 	vcvt.f32.s32	s15, s15
 80032c2:	ee77 7aa6 	vadd.f32	s15, s15, s13
 80032c6:	ee77 7a86 	vadd.f32	s15, s15, s12
 80032ca:	eec5 6a87 	vdiv.f32	s13, s11, s14
 80032ce:	ee67 7aa6 	vmul.f32	s15, s15, s13
 80032d2:	e7bd      	b.n	8003250 <HAL_RCCEx_GetPLL3ClockFreq+0x7c>
 80032d4:	6c0b      	ldr	r3, [r1, #64]	@ 0x40
 80032d6:	eddf 5a12 	vldr	s11, [pc, #72]	@ 8003320 <HAL_RCCEx_GetPLL3ClockFreq+0x14c>
 80032da:	f3c3 0308 	ubfx	r3, r3, #0, #9
 80032de:	ee07 3a90 	vmov	s15, r3
 80032e2:	eef8 7ae7 	vcvt.f32.s32	s15, s15
 80032e6:	ee77 7aa6 	vadd.f32	s15, s15, s13
 80032ea:	ee77 7a86 	vadd.f32	s15, s15, s12
 80032ee:	e7ec      	b.n	80032ca <HAL_RCCEx_GetPLL3ClockFreq+0xf6>
 80032f0:	6c0b      	ldr	r3, [r1, #64]	@ 0x40
 80032f2:	eddf 5a0c 	vldr	s11, [pc, #48]	@ 8003324 <HAL_RCCEx_GetPLL3ClockFreq+0x150>
 80032f6:	f3c3 0308 	ubfx	r3, r3, #0, #9
 80032fa:	ee07 3a90 	vmov	s15, r3
 80032fe:	eef8 7ae7 	vcvt.f32.s32	s15, s15
 8003302:	ee77 7aa6 	vadd.f32	s15, s15, s13
 8003306:	ee77 7a86 	vadd.f32	s15, s15, s12
 800330a:	e7de      	b.n	80032ca <HAL_RCCEx_GetPLL3ClockFreq+0xf6>
 800330c:	e9c0 3300 	strd	r3, r3, [r0]
 8003310:	e7cc      	b.n	80032ac <HAL_RCCEx_GetPLL3ClockFreq+0xd8>
 8003312:	bf00      	nop
 8003314:	58024400 	.word	0x58024400
 8003318:	03d09000 	.word	0x03d09000
 800331c:	4c742400 	.word	0x4c742400
 8003320:	4af42400 	.word	0x4af42400
 8003324:	4a742400 	.word	0x4a742400

08003328 <UART_EndRxTransfer>:
 8003328:	b510      	push	{r4, lr}
 800332a:	6802      	ldr	r2, [r0, #0]
 800332c:	e852 3f00 	ldrex	r3, [r2]
 8003330:	f423 7390 	bic.w	r3, r3, #288	@ 0x120
 8003334:	e842 3100 	strex	r1, r3, [r2]
 8003338:	6802      	ldr	r2, [r0, #0]
 800333a:	2900      	cmp	r1, #0
 800333c:	d1f5      	bne.n	800332a <UART_EndRxTransfer+0x2>
 800333e:	4c0f      	ldr	r4, [pc, #60]	@ (800337c <UART_EndRxTransfer+0x54>)
 8003340:	f102 0308 	add.w	r3, r2, #8
 8003344:	e853 3f00 	ldrex	r3, [r3]
 8003348:	4023      	ands	r3, r4
 800334a:	f102 0c08 	add.w	ip, r2, #8
 800334e:	e84c 3100 	strex	r1, r3, [ip]
 8003352:	2900      	cmp	r1, #0
 8003354:	d1f4      	bne.n	8003340 <UART_EndRxTransfer+0x18>
 8003356:	6ec3      	ldr	r3, [r0, #108]	@ 0x6c
 8003358:	2b01      	cmp	r3, #1
 800335a:	d107      	bne.n	800336c <UART_EndRxTransfer+0x44>
 800335c:	e852 3f00 	ldrex	r3, [r2]
 8003360:	f023 0310 	bic.w	r3, r3, #16
 8003364:	e842 3100 	strex	r1, r3, [r2]
 8003368:	2900      	cmp	r1, #0
 800336a:	d1f7      	bne.n	800335c <UART_EndRxTransfer+0x34>
 800336c:	2320      	movs	r3, #32
 800336e:	f8c0 308c 	str.w	r3, [r0, #140]	@ 0x8c
 8003372:	2300      	movs	r3, #0
 8003374:	66c3      	str	r3, [r0, #108]	@ 0x6c
 8003376:	6743      	str	r3, [r0, #116]	@ 0x74
 8003378:	bd10      	pop	{r4, pc}
 800337a:	bf00      	nop
 800337c:	effffffe 	.word	0xeffffffe

08003380 <HAL_UART_MspInit>:
 8003380:	4770      	bx	lr
	...

08003384 <UART_SetConfig>:
 8003384:	b530      	push	{r4, r5, lr}
 8003386:	4604      	mov	r4, r0
 8003388:	6803      	ldr	r3, [r0, #0]
 800338a:	69c0      	ldr	r0, [r0, #28]
 800338c:	b087      	sub	sp, #28
 800338e:	6921      	ldr	r1, [r4, #16]
 8003390:	68a2      	ldr	r2, [r4, #8]
 8003392:	681d      	ldr	r5, [r3, #0]
 8003394:	430a      	orrs	r2, r1
 8003396:	6961      	ldr	r1, [r4, #20]
 8003398:	430a      	orrs	r2, r1
 800339a:	49a1      	ldr	r1, [pc, #644]	@ (8003620 <UART_SetConfig+0x29c>)
 800339c:	4302      	orrs	r2, r0
 800339e:	4029      	ands	r1, r5
 80033a0:	430a      	orrs	r2, r1
 80033a2:	68e1      	ldr	r1, [r4, #12]
 80033a4:	601a      	str	r2, [r3, #0]
 80033a6:	685a      	ldr	r2, [r3, #4]
 80033a8:	f422 5240 	bic.w	r2, r2, #12288	@ 0x3000
 80033ac:	430a      	orrs	r2, r1
 80033ae:	69a1      	ldr	r1, [r4, #24]
 80033b0:	605a      	str	r2, [r3, #4]
 80033b2:	4a9c      	ldr	r2, [pc, #624]	@ (8003624 <UART_SetConfig+0x2a0>)
 80033b4:	4293      	cmp	r3, r2
 80033b6:	bf1c      	itt	ne
 80033b8:	6a22      	ldrne	r2, [r4, #32]
 80033ba:	4311      	orrne	r1, r2
 80033bc:	689a      	ldr	r2, [r3, #8]
 80033be:	f022 426e 	bic.w	r2, r2, #3992977408	@ 0xee000000
 80033c2:	f422 6230 	bic.w	r2, r2, #2816	@ 0xb00
 80033c6:	430a      	orrs	r2, r1
 80033c8:	6a61      	ldr	r1, [r4, #36]	@ 0x24
 80033ca:	609a      	str	r2, [r3, #8]
 80033cc:	6ada      	ldr	r2, [r3, #44]	@ 0x2c
 80033ce:	f022 020f 	bic.w	r2, r2, #15
 80033d2:	430a      	orrs	r2, r1
 80033d4:	62da      	str	r2, [r3, #44]	@ 0x2c
 80033d6:	4a94      	ldr	r2, [pc, #592]	@ (8003628 <UART_SetConfig+0x2a4>)
 80033d8:	4293      	cmp	r3, r2
 80033da:	d128      	bne.n	800342e <UART_SetConfig+0xaa>
 80033dc:	4b93      	ldr	r3, [pc, #588]	@ (800362c <UART_SetConfig+0x2a8>)
 80033de:	6d5b      	ldr	r3, [r3, #84]	@ 0x54
 80033e0:	f003 0338 	and.w	r3, r3, #56	@ 0x38
 80033e4:	2b18      	cmp	r3, #24
 80033e6:	f000 813d 	beq.w	8003664 <UART_SetConfig+0x2e0>
 80033ea:	d814      	bhi.n	8003416 <UART_SetConfig+0x92>
 80033ec:	2b08      	cmp	r3, #8
 80033ee:	f000 8160 	beq.w	80036b2 <UART_SetConfig+0x32e>
 80033f2:	2b10      	cmp	r3, #16
 80033f4:	f000 810b 	beq.w	800360e <UART_SetConfig+0x28a>
 80033f8:	2b00      	cmp	r3, #0
 80033fa:	f000 8102 	beq.w	8003602 <UART_SetConfig+0x27e>
 80033fe:	2380      	movs	r3, #128	@ 0x80
 8003400:	f5b0 4f00 	cmp.w	r0, #32768	@ 0x8000
 8003404:	f040 80e5 	bne.w	80035d2 <UART_SetConfig+0x24e>
 8003408:	2b08      	cmp	r3, #8
 800340a:	d846      	bhi.n	800349a <UART_SetConfig+0x116>
 800340c:	4668      	mov	r0, sp
 800340e:	f7ff fe37 	bl	8003080 <HAL_RCCEx_GetPLL2ClockFreq>
 8003412:	9801      	ldr	r0, [sp, #4]
 8003414:	e0f2      	b.n	80035fc <UART_SetConfig+0x278>
 8003416:	2b20      	cmp	r3, #32
 8003418:	f000 8146 	beq.w	80036a8 <UART_SetConfig+0x324>
 800341c:	2b28      	cmp	r3, #40	@ 0x28
 800341e:	d1ee      	bne.n	80033fe <UART_SetConfig+0x7a>
 8003420:	f5b0 4f00 	cmp.w	r0, #32768	@ 0x8000
 8003424:	f000 80b9 	beq.w	800359a <UART_SetConfig+0x216>
 8003428:	f44f 4000 	mov.w	r0, #32768	@ 0x8000
 800342c:	e127      	b.n	800367e <UART_SetConfig+0x2fa>
 800342e:	4a80      	ldr	r2, [pc, #512]	@ (8003630 <UART_SetConfig+0x2ac>)
 8003430:	4293      	cmp	r3, r2
 8003432:	d115      	bne.n	8003460 <UART_SetConfig+0xdc>
 8003434:	4b7d      	ldr	r3, [pc, #500]	@ (800362c <UART_SetConfig+0x2a8>)
 8003436:	6d5b      	ldr	r3, [r3, #84]	@ 0x54
 8003438:	f003 0307 	and.w	r3, r3, #7
 800343c:	2b05      	cmp	r3, #5
 800343e:	d82c      	bhi.n	800349a <UART_SetConfig+0x116>
 8003440:	a201      	add	r2, pc, #4	@ (adr r2, 8003448 <UART_SetConfig+0xc4>)
 8003442:	f852 f023 	ldr.w	pc, [r2, r3, lsl #2]
 8003446:	bf00      	nop
 8003448:	080035f3 	.word	0x080035f3
 800344c:	08003579 	.word	0x08003579
 8003450:	0800360f 	.word	0x0800360f
 8003454:	08003665 	.word	0x08003665
 8003458:	080036a9 	.word	0x080036a9
 800345c:	08003421 	.word	0x08003421
 8003460:	4a74      	ldr	r2, [pc, #464]	@ (8003634 <UART_SetConfig+0x2b0>)
 8003462:	4293      	cmp	r3, r2
 8003464:	d0e6      	beq.n	8003434 <UART_SetConfig+0xb0>
 8003466:	4a74      	ldr	r2, [pc, #464]	@ (8003638 <UART_SetConfig+0x2b4>)
 8003468:	4293      	cmp	r3, r2
 800346a:	d0e3      	beq.n	8003434 <UART_SetConfig+0xb0>
 800346c:	4a73      	ldr	r2, [pc, #460]	@ (800363c <UART_SetConfig+0x2b8>)
 800346e:	4293      	cmp	r3, r2
 8003470:	d0e0      	beq.n	8003434 <UART_SetConfig+0xb0>
 8003472:	4a73      	ldr	r2, [pc, #460]	@ (8003640 <UART_SetConfig+0x2bc>)
 8003474:	4293      	cmp	r3, r2
 8003476:	d112      	bne.n	800349e <UART_SetConfig+0x11a>
 8003478:	4b6c      	ldr	r3, [pc, #432]	@ (800362c <UART_SetConfig+0x2a8>)
 800347a:	6d5b      	ldr	r3, [r3, #84]	@ 0x54
 800347c:	f003 0338 	and.w	r3, r3, #56	@ 0x38
 8003480:	2b18      	cmp	r3, #24
 8003482:	f000 80ef 	beq.w	8003664 <UART_SetConfig+0x2e0>
 8003486:	d825      	bhi.n	80034d4 <UART_SetConfig+0x150>
 8003488:	2b08      	cmp	r3, #8
 800348a:	f000 8112 	beq.w	80036b2 <UART_SetConfig+0x32e>
 800348e:	2b10      	cmp	r3, #16
 8003490:	f000 80bd 	beq.w	800360e <UART_SetConfig+0x28a>
 8003494:	2b00      	cmp	r3, #0
 8003496:	f000 80b4 	beq.w	8003602 <UART_SetConfig+0x27e>
 800349a:	2001      	movs	r0, #1
 800349c:	e04f      	b.n	800353e <UART_SetConfig+0x1ba>
 800349e:	4a69      	ldr	r2, [pc, #420]	@ (8003644 <UART_SetConfig+0x2c0>)
 80034a0:	4293      	cmp	r3, r2
 80034a2:	d0c7      	beq.n	8003434 <UART_SetConfig+0xb0>
 80034a4:	4a68      	ldr	r2, [pc, #416]	@ (8003648 <UART_SetConfig+0x2c4>)
 80034a6:	4293      	cmp	r3, r2
 80034a8:	d0c4      	beq.n	8003434 <UART_SetConfig+0xb0>
 80034aa:	4a68      	ldr	r2, [pc, #416]	@ (800364c <UART_SetConfig+0x2c8>)
 80034ac:	4293      	cmp	r3, r2
 80034ae:	d0e3      	beq.n	8003478 <UART_SetConfig+0xf4>
 80034b0:	4a67      	ldr	r2, [pc, #412]	@ (8003650 <UART_SetConfig+0x2cc>)
 80034b2:	4293      	cmp	r3, r2
 80034b4:	d0e0      	beq.n	8003478 <UART_SetConfig+0xf4>
 80034b6:	4a5b      	ldr	r2, [pc, #364]	@ (8003624 <UART_SetConfig+0x2a0>)
 80034b8:	4293      	cmp	r3, r2
 80034ba:	d1ee      	bne.n	800349a <UART_SetConfig+0x116>
 80034bc:	f502 320e 	add.w	r2, r2, #145408	@ 0x23800
 80034c0:	6d93      	ldr	r3, [r2, #88]	@ 0x58
 80034c2:	f003 0307 	and.w	r3, r3, #7
 80034c6:	2b05      	cmp	r3, #5
 80034c8:	d8e7      	bhi.n	800349a <UART_SetConfig+0x116>
 80034ca:	e8df f003 	tbb	[pc, r3]
 80034ce:	314f      	.short	0x314f
 80034d0:	52094540 	.word	0x52094540
 80034d4:	2b20      	cmp	r3, #32
 80034d6:	f000 80e7 	beq.w	80036a8 <UART_SetConfig+0x324>
 80034da:	2b28      	cmp	r3, #40	@ 0x28
 80034dc:	d0a0      	beq.n	8003420 <UART_SetConfig+0x9c>
 80034de:	e7dc      	b.n	800349a <UART_SetConfig+0x116>
 80034e0:	485c      	ldr	r0, [pc, #368]	@ (8003654 <UART_SetConfig+0x2d0>)
 80034e2:	4b5d      	ldr	r3, [pc, #372]	@ (8003658 <UART_SetConfig+0x2d4>)
 80034e4:	6a62      	ldr	r2, [r4, #36]	@ 0x24
 80034e6:	6865      	ldr	r5, [r4, #4]
 80034e8:	f833 2012 	ldrh.w	r2, [r3, r2, lsl #1]
 80034ec:	eb05 0145 	add.w	r1, r5, r5, lsl #1
 80034f0:	fbb0 f3f2 	udiv	r3, r0, r2
 80034f4:	4299      	cmp	r1, r3
 80034f6:	d8d0      	bhi.n	800349a <UART_SetConfig+0x116>
 80034f8:	ebb3 3f05 	cmp.w	r3, r5, lsl #12
 80034fc:	d8cd      	bhi.n	800349a <UART_SetConfig+0x116>
 80034fe:	2300      	movs	r3, #0
 8003500:	4619      	mov	r1, r3
 8003502:	f7fc fef3 	bl	80002ec <__aeabi_uldivmod>
 8003506:	462a      	mov	r2, r5
 8003508:	0209      	lsls	r1, r1, #8
 800350a:	086b      	lsrs	r3, r5, #1
 800350c:	ea41 6110 	orr.w	r1, r1, r0, lsr #24
 8003510:	0200      	lsls	r0, r0, #8
 8003512:	18c0      	adds	r0, r0, r3
 8003514:	f04f 0300 	mov.w	r3, #0
 8003518:	f141 0100 	adc.w	r1, r1, #0
 800351c:	f7fc fee6 	bl	80002ec <__aeabi_uldivmod>
 8003520:	4b4e      	ldr	r3, [pc, #312]	@ (800365c <UART_SetConfig+0x2d8>)
 8003522:	f5a0 7240 	sub.w	r2, r0, #768	@ 0x300
 8003526:	429a      	cmp	r2, r3
 8003528:	d8b7      	bhi.n	800349a <UART_SetConfig+0x116>
 800352a:	6823      	ldr	r3, [r4, #0]
 800352c:	60d8      	str	r0, [r3, #12]
 800352e:	e005      	b.n	800353c <UART_SetConfig+0x1b8>
 8003530:	4668      	mov	r0, sp
 8003532:	f7ff fda5 	bl	8003080 <HAL_RCCEx_GetPLL2ClockFreq>
 8003536:	9801      	ldr	r0, [sp, #4]
 8003538:	2800      	cmp	r0, #0
 800353a:	d1d2      	bne.n	80034e2 <UART_SetConfig+0x15e>
 800353c:	2000      	movs	r0, #0
 800353e:	f04f 1301 	mov.w	r3, #65537	@ 0x10001
 8003542:	66a3      	str	r3, [r4, #104]	@ 0x68
 8003544:	2300      	movs	r3, #0
 8003546:	e9c4 331d 	strd	r3, r3, [r4, #116]	@ 0x74
 800354a:	b007      	add	sp, #28
 800354c:	bd30      	pop	{r4, r5, pc}
 800354e:	a803      	add	r0, sp, #12
 8003550:	f7ff fe40 	bl	80031d4 <HAL_RCCEx_GetPLL3ClockFreq>
 8003554:	9804      	ldr	r0, [sp, #16]
 8003556:	e7ef      	b.n	8003538 <UART_SetConfig+0x1b4>
 8003558:	6813      	ldr	r3, [r2, #0]
 800355a:	4841      	ldr	r0, [pc, #260]	@ (8003660 <UART_SetConfig+0x2dc>)
 800355c:	f013 0f20 	tst.w	r3, #32
 8003560:	d0bf      	beq.n	80034e2 <UART_SetConfig+0x15e>
 8003562:	6813      	ldr	r3, [r2, #0]
 8003564:	f3c3 03c1 	ubfx	r3, r3, #3, #2
 8003568:	40d8      	lsrs	r0, r3
 800356a:	e7ba      	b.n	80034e2 <UART_SetConfig+0x15e>
 800356c:	f7ff fd76 	bl	800305c <HAL_RCCEx_GetD3PCLK1Freq>
 8003570:	e7e2      	b.n	8003538 <UART_SetConfig+0x1b4>
 8003572:	f44f 4000 	mov.w	r0, #32768	@ 0x8000
 8003576:	e7b4      	b.n	80034e2 <UART_SetConfig+0x15e>
 8003578:	2304      	movs	r3, #4
 800357a:	e741      	b.n	8003400 <UART_SetConfig+0x7c>
 800357c:	a803      	add	r0, sp, #12
 800357e:	f7ff fe29 	bl	80031d4 <HAL_RCCEx_GetPLL3ClockFreq>
 8003582:	9804      	ldr	r0, [sp, #16]
 8003584:	e03a      	b.n	80035fc <UART_SetConfig+0x278>
 8003586:	4b29      	ldr	r3, [pc, #164]	@ (800362c <UART_SetConfig+0x2a8>)
 8003588:	4835      	ldr	r0, [pc, #212]	@ (8003660 <UART_SetConfig+0x2dc>)
 800358a:	681a      	ldr	r2, [r3, #0]
 800358c:	f012 0f20 	tst.w	r2, #32
 8003590:	d003      	beq.n	800359a <UART_SetConfig+0x216>
 8003592:	681b      	ldr	r3, [r3, #0]
 8003594:	f3c3 03c1 	ubfx	r3, r3, #3, #2
 8003598:	40d8      	lsrs	r0, r3
 800359a:	4b2f      	ldr	r3, [pc, #188]	@ (8003658 <UART_SetConfig+0x2d4>)
 800359c:	6a62      	ldr	r2, [r4, #36]	@ 0x24
 800359e:	6861      	ldr	r1, [r4, #4]
 80035a0:	f833 2012 	ldrh.w	r2, [r3, r2, lsl #1]
 80035a4:	084b      	lsrs	r3, r1, #1
 80035a6:	fbb0 f2f2 	udiv	r2, r0, r2
 80035aa:	eb03 0342 	add.w	r3, r3, r2, lsl #1
 80035ae:	f64f 72ef 	movw	r2, #65519	@ 0xffef
 80035b2:	fbb3 f3f1 	udiv	r3, r3, r1
 80035b6:	f1a3 0110 	sub.w	r1, r3, #16
 80035ba:	4291      	cmp	r1, r2
 80035bc:	f63f af6d 	bhi.w	800349a <UART_SetConfig+0x116>
 80035c0:	f023 020f 	bic.w	r2, r3, #15
 80035c4:	f3c3 0342 	ubfx	r3, r3, #1, #3
 80035c8:	6821      	ldr	r1, [r4, #0]
 80035ca:	b292      	uxth	r2, r2
 80035cc:	4313      	orrs	r3, r2
 80035ce:	60cb      	str	r3, [r1, #12]
 80035d0:	e7b4      	b.n	800353c <UART_SetConfig+0x1b8>
 80035d2:	2b08      	cmp	r3, #8
 80035d4:	f63f af61 	bhi.w	800349a <UART_SetConfig+0x116>
 80035d8:	4668      	mov	r0, sp
 80035da:	f7ff fd51 	bl	8003080 <HAL_RCCEx_GetPLL2ClockFreq>
 80035de:	9801      	ldr	r0, [sp, #4]
 80035e0:	e001      	b.n	80035e6 <UART_SetConfig+0x262>
 80035e2:	f7fe ff6b 	bl	80024bc <HAL_RCC_GetPCLK1Freq>
 80035e6:	2800      	cmp	r0, #0
 80035e8:	d0a8      	beq.n	800353c <UART_SetConfig+0x1b8>
 80035ea:	e048      	b.n	800367e <UART_SetConfig+0x2fa>
 80035ec:	f7fe ff78 	bl	80024e0 <HAL_RCC_GetPCLK2Freq>
 80035f0:	e7f9      	b.n	80035e6 <UART_SetConfig+0x262>
 80035f2:	f5b0 4f00 	cmp.w	r0, #32768	@ 0x8000
 80035f6:	d1f4      	bne.n	80035e2 <UART_SetConfig+0x25e>
 80035f8:	f7fe ff60 	bl	80024bc <HAL_RCC_GetPCLK1Freq>
 80035fc:	2800      	cmp	r0, #0
 80035fe:	d09d      	beq.n	800353c <UART_SetConfig+0x1b8>
 8003600:	e7cb      	b.n	800359a <UART_SetConfig+0x216>
 8003602:	f5b0 4f00 	cmp.w	r0, #32768	@ 0x8000
 8003606:	d1f1      	bne.n	80035ec <UART_SetConfig+0x268>
 8003608:	f7fe ff6a 	bl	80024e0 <HAL_RCC_GetPCLK2Freq>
 800360c:	e7f6      	b.n	80035fc <UART_SetConfig+0x278>
 800360e:	f5b0 4f00 	cmp.w	r0, #32768	@ 0x8000
 8003612:	d0b3      	beq.n	800357c <UART_SetConfig+0x1f8>
 8003614:	a803      	add	r0, sp, #12
 8003616:	f7ff fddd 	bl	80031d4 <HAL_RCCEx_GetPLL3ClockFreq>
 800361a:	9804      	ldr	r0, [sp, #16]
 800361c:	e7e3      	b.n	80035e6 <UART_SetConfig+0x262>
 800361e:	bf00      	nop
 8003620:	cfff69f3 	.word	0xcfff69f3
 8003624:	58000c00 	.word	0x58000c00
 8003628:	40011000 	.word	0x40011000
 800362c:	58024400 	.word	0x58024400
 8003630:	40004400 	.word	0x40004400
 8003634:	40004800 	.word	0x40004800
 8003638:	40004c00 	.word	0x40004c00
 800363c:	40005000 	.word	0x40005000
 8003640:	40011400 	.word	0x40011400
 8003644:	40007800 	.word	0x40007800
 8003648:	40007c00 	.word	0x40007c00
 800364c:	40011800 	.word	0x40011800
 8003650:	40011c00 	.word	0x40011c00
 8003654:	003d0900 	.word	0x003d0900
 8003658:	08004724 	.word	0x08004724
 800365c:	000ffcff 	.word	0x000ffcff
 8003660:	03d09000 	.word	0x03d09000
 8003664:	f5b0 4f00 	cmp.w	r0, #32768	@ 0x8000
 8003668:	d08d      	beq.n	8003586 <UART_SetConfig+0x202>
 800366a:	4b14      	ldr	r3, [pc, #80]	@ (80036bc <UART_SetConfig+0x338>)
 800366c:	4814      	ldr	r0, [pc, #80]	@ (80036c0 <UART_SetConfig+0x33c>)
 800366e:	681a      	ldr	r2, [r3, #0]
 8003670:	f012 0f20 	tst.w	r2, #32
 8003674:	d003      	beq.n	800367e <UART_SetConfig+0x2fa>
 8003676:	681b      	ldr	r3, [r3, #0]
 8003678:	f3c3 03c1 	ubfx	r3, r3, #3, #2
 800367c:	40d8      	lsrs	r0, r3
 800367e:	6a61      	ldr	r1, [r4, #36]	@ 0x24
 8003680:	4b10      	ldr	r3, [pc, #64]	@ (80036c4 <UART_SetConfig+0x340>)
 8003682:	6862      	ldr	r2, [r4, #4]
 8003684:	f833 3011 	ldrh.w	r3, [r3, r1, lsl #1]
 8003688:	fbb0 f3f3 	udiv	r3, r0, r3
 800368c:	eb03 0352 	add.w	r3, r3, r2, lsr #1
 8003690:	fbb3 f3f2 	udiv	r3, r3, r2
 8003694:	f64f 72ef 	movw	r2, #65519	@ 0xffef
 8003698:	f1a3 0110 	sub.w	r1, r3, #16
 800369c:	4291      	cmp	r1, r2
 800369e:	f63f aefc 	bhi.w	800349a <UART_SetConfig+0x116>
 80036a2:	6822      	ldr	r2, [r4, #0]
 80036a4:	60d3      	str	r3, [r2, #12]
 80036a6:	e749      	b.n	800353c <UART_SetConfig+0x1b8>
 80036a8:	f5b0 4f00 	cmp.w	r0, #32768	@ 0x8000
 80036ac:	4806      	ldr	r0, [pc, #24]	@ (80036c8 <UART_SetConfig+0x344>)
 80036ae:	d1e6      	bne.n	800367e <UART_SetConfig+0x2fa>
 80036b0:	e773      	b.n	800359a <UART_SetConfig+0x216>
 80036b2:	f5b0 4f00 	cmp.w	r0, #32768	@ 0x8000
 80036b6:	d18f      	bne.n	80035d8 <UART_SetConfig+0x254>
 80036b8:	e6a8      	b.n	800340c <UART_SetConfig+0x88>
 80036ba:	bf00      	nop
 80036bc:	58024400 	.word	0x58024400
 80036c0:	03d09000 	.word	0x03d09000
 80036c4:	08004724 	.word	0x08004724
 80036c8:	003d0900 	.word	0x003d0900

080036cc <UART_AdvFeatureConfig>:
 80036cc:	6a83      	ldr	r3, [r0, #40]	@ 0x28
 80036ce:	071a      	lsls	r2, r3, #28
 80036d0:	b510      	push	{r4, lr}
 80036d2:	d506      	bpl.n	80036e2 <UART_AdvFeatureConfig+0x16>
 80036d4:	6801      	ldr	r1, [r0, #0]
 80036d6:	6b84      	ldr	r4, [r0, #56]	@ 0x38
 80036d8:	684a      	ldr	r2, [r1, #4]
 80036da:	f422 4200 	bic.w	r2, r2, #32768	@ 0x8000
 80036de:	4322      	orrs	r2, r4
 80036e0:	604a      	str	r2, [r1, #4]
 80036e2:	07dc      	lsls	r4, r3, #31
 80036e4:	d506      	bpl.n	80036f4 <UART_AdvFeatureConfig+0x28>
 80036e6:	6801      	ldr	r1, [r0, #0]
 80036e8:	6ac4      	ldr	r4, [r0, #44]	@ 0x2c
 80036ea:	684a      	ldr	r2, [r1, #4]
 80036ec:	f422 3200 	bic.w	r2, r2, #131072	@ 0x20000
 80036f0:	4322      	orrs	r2, r4
 80036f2:	604a      	str	r2, [r1, #4]
 80036f4:	0799      	lsls	r1, r3, #30
 80036f6:	d506      	bpl.n	8003706 <UART_AdvFeatureConfig+0x3a>
 80036f8:	6801      	ldr	r1, [r0, #0]
 80036fa:	6b04      	ldr	r4, [r0, #48]	@ 0x30
 80036fc:	684a      	ldr	r2, [r1, #4]
 80036fe:	f422 3280 	bic.w	r2, r2, #65536	@ 0x10000
 8003702:	4322      	orrs	r2, r4
 8003704:	604a      	str	r2, [r1, #4]
 8003706:	075a      	lsls	r2, r3, #29
 8003708:	d506      	bpl.n	8003718 <UART_AdvFeatureConfig+0x4c>
 800370a:	6801      	ldr	r1, [r0, #0]
 800370c:	6b44      	ldr	r4, [r0, #52]	@ 0x34
 800370e:	684a      	ldr	r2, [r1, #4]
 8003710:	f422 2280 	bic.w	r2, r2, #262144	@ 0x40000
 8003714:	4322      	orrs	r2, r4
 8003716:	604a      	str	r2, [r1, #4]
 8003718:	06dc      	lsls	r4, r3, #27
 800371a:	d506      	bpl.n	800372a <UART_AdvFeatureConfig+0x5e>
 800371c:	6801      	ldr	r1, [r0, #0]
 800371e:	6bc4      	ldr	r4, [r0, #60]	@ 0x3c
 8003720:	688a      	ldr	r2, [r1, #8]
 8003722:	f422 5280 	bic.w	r2, r2, #4096	@ 0x1000
 8003726:	4322      	orrs	r2, r4
 8003728:	608a      	str	r2, [r1, #8]
 800372a:	0699      	lsls	r1, r3, #26
 800372c:	d506      	bpl.n	800373c <UART_AdvFeatureConfig+0x70>
 800372e:	6801      	ldr	r1, [r0, #0]
 8003730:	6c04      	ldr	r4, [r0, #64]	@ 0x40
 8003732:	688a      	ldr	r2, [r1, #8]
 8003734:	f422 5200 	bic.w	r2, r2, #8192	@ 0x2000
 8003738:	4322      	orrs	r2, r4
 800373a:	608a      	str	r2, [r1, #8]
 800373c:	065a      	lsls	r2, r3, #25
 800373e:	d510      	bpl.n	8003762 <UART_AdvFeatureConfig+0x96>
 8003740:	6801      	ldr	r1, [r0, #0]
 8003742:	6c44      	ldr	r4, [r0, #68]	@ 0x44
 8003744:	684a      	ldr	r2, [r1, #4]
 8003746:	f5b4 1f80 	cmp.w	r4, #1048576	@ 0x100000
 800374a:	f422 1280 	bic.w	r2, r2, #1048576	@ 0x100000
 800374e:	ea42 0204 	orr.w	r2, r2, r4
 8003752:	604a      	str	r2, [r1, #4]
 8003754:	d105      	bne.n	8003762 <UART_AdvFeatureConfig+0x96>
 8003756:	684a      	ldr	r2, [r1, #4]
 8003758:	6c84      	ldr	r4, [r0, #72]	@ 0x48
 800375a:	f422 02c0 	bic.w	r2, r2, #6291456	@ 0x600000
 800375e:	4322      	orrs	r2, r4
 8003760:	604a      	str	r2, [r1, #4]
 8003762:	061b      	lsls	r3, r3, #24
 8003764:	d506      	bpl.n	8003774 <UART_AdvFeatureConfig+0xa8>
 8003766:	6802      	ldr	r2, [r0, #0]
 8003768:	6cc1      	ldr	r1, [r0, #76]	@ 0x4c
 800376a:	6853      	ldr	r3, [r2, #4]
 800376c:	f423 2300 	bic.w	r3, r3, #524288	@ 0x80000
 8003770:	430b      	orrs	r3, r1
 8003772:	6053      	str	r3, [r2, #4]
 8003774:	bd10      	pop	{r4, pc}

08003776 <UART_WaitOnFlagUntilTimeout>:
 8003776:	e92d 43f8 	stmdb	sp!, {r3, r4, r5, r6, r7, r8, r9, lr}
 800377a:	f8dd 9020 	ldr.w	r9, [sp, #32]
 800377e:	4604      	mov	r4, r0
 8003780:	460d      	mov	r5, r1
 8003782:	4617      	mov	r7, r2
 8003784:	4698      	mov	r8, r3
 8003786:	6822      	ldr	r2, [r4, #0]
 8003788:	69d3      	ldr	r3, [r2, #28]
 800378a:	ea35 0303 	bics.w	r3, r5, r3
 800378e:	bf0c      	ite	eq
 8003790:	2301      	moveq	r3, #1
 8003792:	2300      	movne	r3, #0
 8003794:	42bb      	cmp	r3, r7
 8003796:	d001      	beq.n	800379c <UART_WaitOnFlagUntilTimeout+0x26>
 8003798:	2000      	movs	r0, #0
 800379a:	e022      	b.n	80037e2 <UART_WaitOnFlagUntilTimeout+0x6c>
 800379c:	f1b9 3fff 	cmp.w	r9, #4294967295
 80037a0:	d0f2      	beq.n	8003788 <UART_WaitOnFlagUntilTimeout+0x12>
 80037a2:	f7fd fd31 	bl	8001208 <HAL_GetTick>
 80037a6:	eba0 0008 	sub.w	r0, r0, r8
 80037aa:	4548      	cmp	r0, r9
 80037ac:	d829      	bhi.n	8003802 <UART_WaitOnFlagUntilTimeout+0x8c>
 80037ae:	f1b9 0f00 	cmp.w	r9, #0
 80037b2:	d026      	beq.n	8003802 <UART_WaitOnFlagUntilTimeout+0x8c>
 80037b4:	6821      	ldr	r1, [r4, #0]
 80037b6:	680b      	ldr	r3, [r1, #0]
 80037b8:	075a      	lsls	r2, r3, #29
 80037ba:	d5e4      	bpl.n	8003786 <UART_WaitOnFlagUntilTimeout+0x10>
 80037bc:	2d80      	cmp	r5, #128	@ 0x80
 80037be:	d0e2      	beq.n	8003786 <UART_WaitOnFlagUntilTimeout+0x10>
 80037c0:	2d40      	cmp	r5, #64	@ 0x40
 80037c2:	d0e0      	beq.n	8003786 <UART_WaitOnFlagUntilTimeout+0x10>
 80037c4:	69ce      	ldr	r6, [r1, #28]
 80037c6:	f016 0608 	ands.w	r6, r6, #8
 80037ca:	d00c      	beq.n	80037e6 <UART_WaitOnFlagUntilTimeout+0x70>
 80037cc:	2508      	movs	r5, #8
 80037ce:	4620      	mov	r0, r4
 80037d0:	620d      	str	r5, [r1, #32]
 80037d2:	f7ff fda9 	bl	8003328 <UART_EndRxTransfer>
 80037d6:	2300      	movs	r3, #0
 80037d8:	2001      	movs	r0, #1
 80037da:	f8c4 5090 	str.w	r5, [r4, #144]	@ 0x90
 80037de:	f884 3084 	strb.w	r3, [r4, #132]	@ 0x84
 80037e2:	e8bd 83f8 	ldmia.w	sp!, {r3, r4, r5, r6, r7, r8, r9, pc}
 80037e6:	69cb      	ldr	r3, [r1, #28]
 80037e8:	051b      	lsls	r3, r3, #20
 80037ea:	d5cc      	bpl.n	8003786 <UART_WaitOnFlagUntilTimeout+0x10>
 80037ec:	f44f 6300 	mov.w	r3, #2048	@ 0x800
 80037f0:	4620      	mov	r0, r4
 80037f2:	620b      	str	r3, [r1, #32]
 80037f4:	f7ff fd98 	bl	8003328 <UART_EndRxTransfer>
 80037f8:	2320      	movs	r3, #32
 80037fa:	f884 6084 	strb.w	r6, [r4, #132]	@ 0x84
 80037fe:	f8c4 3090 	str.w	r3, [r4, #144]	@ 0x90
 8003802:	2003      	movs	r0, #3
 8003804:	e7ed      	b.n	80037e2 <UART_WaitOnFlagUntilTimeout+0x6c>

08003806 <UART_CheckIdleState>:
 8003806:	b573      	push	{r0, r1, r4, r5, r6, lr}
 8003808:	2600      	movs	r6, #0
 800380a:	4604      	mov	r4, r0
 800380c:	f8c0 6090 	str.w	r6, [r0, #144]	@ 0x90
 8003810:	f7fd fcfa 	bl	8001208 <HAL_GetTick>
 8003814:	6823      	ldr	r3, [r4, #0]
 8003816:	4605      	mov	r5, r0
 8003818:	681b      	ldr	r3, [r3, #0]
 800381a:	071a      	lsls	r2, r3, #28
 800381c:	d51c      	bpl.n	8003858 <UART_CheckIdleState+0x52>
 800381e:	f06f 437e 	mvn.w	r3, #4261412864	@ 0xfe000000
 8003822:	4632      	mov	r2, r6
 8003824:	f44f 1100 	mov.w	r1, #2097152	@ 0x200000
 8003828:	9300      	str	r3, [sp, #0]
 800382a:	4603      	mov	r3, r0
 800382c:	4620      	mov	r0, r4
 800382e:	f7ff ffa2 	bl	8003776 <UART_WaitOnFlagUntilTimeout>
 8003832:	b188      	cbz	r0, 8003858 <UART_CheckIdleState+0x52>
 8003834:	6822      	ldr	r2, [r4, #0]
 8003836:	e852 3f00 	ldrex	r3, [r2]
 800383a:	f023 0380 	bic.w	r3, r3, #128	@ 0x80
 800383e:	e842 3100 	strex	r1, r3, [r2]
 8003842:	2900      	cmp	r1, #0
 8003844:	d1f6      	bne.n	8003834 <UART_CheckIdleState+0x2e>
 8003846:	2320      	movs	r3, #32
 8003848:	f8c4 3088 	str.w	r3, [r4, #136]	@ 0x88
 800384c:	2003      	movs	r0, #3
 800384e:	2300      	movs	r3, #0
 8003850:	f884 3084 	strb.w	r3, [r4, #132]	@ 0x84
 8003854:	b002      	add	sp, #8
 8003856:	bd70      	pop	{r4, r5, r6, pc}
 8003858:	6823      	ldr	r3, [r4, #0]
 800385a:	681b      	ldr	r3, [r3, #0]
 800385c:	075b      	lsls	r3, r3, #29
 800385e:	d524      	bpl.n	80038aa <UART_CheckIdleState+0xa4>
 8003860:	f06f 437e 	mvn.w	r3, #4261412864	@ 0xfe000000
 8003864:	2200      	movs	r2, #0
 8003866:	f44f 0180 	mov.w	r1, #4194304	@ 0x400000
 800386a:	4620      	mov	r0, r4
 800386c:	9300      	str	r3, [sp, #0]
 800386e:	462b      	mov	r3, r5
 8003870:	f7ff ff81 	bl	8003776 <UART_WaitOnFlagUntilTimeout>
 8003874:	b1c8      	cbz	r0, 80038aa <UART_CheckIdleState+0xa4>
 8003876:	6822      	ldr	r2, [r4, #0]
 8003878:	e852 3f00 	ldrex	r3, [r2]
 800387c:	f423 7390 	bic.w	r3, r3, #288	@ 0x120
 8003880:	e842 3100 	strex	r1, r3, [r2]
 8003884:	6822      	ldr	r2, [r4, #0]
 8003886:	2900      	cmp	r1, #0
 8003888:	d1f5      	bne.n	8003876 <UART_CheckIdleState+0x70>
 800388a:	f102 0308 	add.w	r3, r2, #8
 800388e:	e853 3f00 	ldrex	r3, [r3]
 8003892:	f023 0301 	bic.w	r3, r3, #1
 8003896:	f102 0008 	add.w	r0, r2, #8
 800389a:	e840 3100 	strex	r1, r3, [r0]
 800389e:	2900      	cmp	r1, #0
 80038a0:	d1f3      	bne.n	800388a <UART_CheckIdleState+0x84>
 80038a2:	2320      	movs	r3, #32
 80038a4:	f8c4 308c 	str.w	r3, [r4, #140]	@ 0x8c
 80038a8:	e7d0      	b.n	800384c <UART_CheckIdleState+0x46>
 80038aa:	2320      	movs	r3, #32
 80038ac:	2000      	movs	r0, #0
 80038ae:	f8c4 3088 	str.w	r3, [r4, #136]	@ 0x88
 80038b2:	f8c4 308c 	str.w	r3, [r4, #140]	@ 0x8c
 80038b6:	66e0      	str	r0, [r4, #108]	@ 0x6c
 80038b8:	6720      	str	r0, [r4, #112]	@ 0x70
 80038ba:	e7c8      	b.n	800384e <UART_CheckIdleState+0x48>

080038bc <HAL_UART_Init>:
 80038bc:	b510      	push	{r4, lr}
 80038be:	4604      	mov	r4, r0
 80038c0:	b350      	cbz	r0, 8003918 <HAL_UART_Init+0x5c>
 80038c2:	f8d0 3088 	ldr.w	r3, [r0, #136]	@ 0x88
 80038c6:	b91b      	cbnz	r3, 80038d0 <HAL_UART_Init+0x14>
 80038c8:	f880 3084 	strb.w	r3, [r0, #132]	@ 0x84
 80038cc:	f7ff fd58 	bl	8003380 <HAL_UART_MspInit>
 80038d0:	2324      	movs	r3, #36	@ 0x24
 80038d2:	6822      	ldr	r2, [r4, #0]
 80038d4:	f8c4 3088 	str.w	r3, [r4, #136]	@ 0x88
 80038d8:	6813      	ldr	r3, [r2, #0]
 80038da:	f023 0301 	bic.w	r3, r3, #1
 80038de:	6013      	str	r3, [r2, #0]
 80038e0:	6aa3      	ldr	r3, [r4, #40]	@ 0x28
 80038e2:	b113      	cbz	r3, 80038ea <HAL_UART_Init+0x2e>
 80038e4:	4620      	mov	r0, r4
 80038e6:	f7ff fef1 	bl	80036cc <UART_AdvFeatureConfig>
 80038ea:	4620      	mov	r0, r4
 80038ec:	f7ff fd4a 	bl	8003384 <UART_SetConfig>
 80038f0:	2801      	cmp	r0, #1
 80038f2:	d011      	beq.n	8003918 <HAL_UART_Init+0x5c>
 80038f4:	6823      	ldr	r3, [r4, #0]
 80038f6:	4620      	mov	r0, r4
 80038f8:	685a      	ldr	r2, [r3, #4]
 80038fa:	f422 4290 	bic.w	r2, r2, #18432	@ 0x4800
 80038fe:	605a      	str	r2, [r3, #4]
 8003900:	689a      	ldr	r2, [r3, #8]
 8003902:	f022 022a 	bic.w	r2, r2, #42	@ 0x2a
 8003906:	609a      	str	r2, [r3, #8]
 8003908:	681a      	ldr	r2, [r3, #0]
 800390a:	f042 0201 	orr.w	r2, r2, #1
 800390e:	e8bd 4010 	ldmia.w	sp!, {r4, lr}
 8003912:	601a      	str	r2, [r3, #0]
 8003914:	f7ff bf77 	b.w	8003806 <UART_CheckIdleState>
 8003918:	2001      	movs	r0, #1
 800391a:	bd10      	pop	{r4, pc}

0800391c <memset>:
 800391c:	4402      	add	r2, r0
 800391e:	4603      	mov	r3, r0
 8003920:	4293      	cmp	r3, r2
 8003922:	d100      	bne.n	8003926 <memset+0xa>
 8003924:	4770      	bx	lr
 8003926:	f803 1b01 	strb.w	r1, [r3], #1
 800392a:	e7f9      	b.n	8003920 <memset+0x4>

0800392c <__libc_init_array>:
 800392c:	b570      	push	{r4, r5, r6, lr}
 800392e:	4d0d      	ldr	r5, [pc, #52]	@ (8003964 <__libc_init_array+0x38>)
 8003930:	4c0d      	ldr	r4, [pc, #52]	@ (8003968 <__libc_init_array+0x3c>)
 8003932:	1b64      	subs	r4, r4, r5
 8003934:	10a4      	asrs	r4, r4, #2
 8003936:	2600      	movs	r6, #0
 8003938:	42a6      	cmp	r6, r4
 800393a:	d109      	bne.n	8003950 <__libc_init_array+0x24>
 800393c:	4d0b      	ldr	r5, [pc, #44]	@ (800396c <__libc_init_array+0x40>)
 800393e:	4c0c      	ldr	r4, [pc, #48]	@ (8003970 <__libc_init_array+0x44>)
 8003940:	f000 f818 	bl	8003974 <_init>
 8003944:	1b64      	subs	r4, r4, r5
 8003946:	10a4      	asrs	r4, r4, #2
 8003948:	2600      	movs	r6, #0
 800394a:	42a6      	cmp	r6, r4
 800394c:	d105      	bne.n	800395a <__libc_init_array+0x2e>
 800394e:	bd70      	pop	{r4, r5, r6, pc}
 8003950:	f855 3b04 	ldr.w	r3, [r5], #4
 8003954:	4798      	blx	r3
 8003956:	3601      	adds	r6, #1
 8003958:	e7ee      	b.n	8003938 <__libc_init_array+0xc>
 800395a:	f855 3b04 	ldr.w	r3, [r5], #4
 800395e:	4798      	blx	r3
 8003960:	3601      	adds	r6, #1
 8003962:	e7f2      	b.n	800394a <__libc_init_array+0x1e>
 8003964:	08004744 	.word	0x08004744
 8003968:	08004744 	.word	0x08004744
 800396c:	08004744 	.word	0x08004744
 8003970:	08004748 	.word	0x08004748

08003974 <_init>:
 8003974:	b5f8      	push	{r3, r4, r5, r6, r7, lr}
 8003976:	bf00      	nop
 8003978:	bcf8      	pop	{r3, r4, r5, r6, r7}
 800397a:	bc08      	pop	{r3}
 800397c:	469e      	mov	lr, r3
 800397e:	4770      	bx	lr

08003980 <_fini>:
 8003980:	b5f8      	push	{r3, r4, r5, r6, r7, lr}
 8003982:	bf00      	nop
 8003984:	bcf8      	pop	{r3, r4, r5, r6, r7}
 8003986:	bc08      	pop	{r3}
 8003988:	469e      	mov	lr, r3
 800398a:	4770      	bx	lr
